MPASM  5.44                      DERS5_~1.ASM   1-15-2021  13:59:15         PAGE  1


LOC  OBJECT CODE     LINE SOURCE TEXT
  VALUE

                      00001 
                      00002 ; PICBASIC PRO(TM) Compiler 2.60, (c) 1998, 2009 microEngineering Labs, Inc. All Rights Reserved. 
  00000001            00003 _USED                   EQU     1
                      00004 
                      00005         INCLUDE "C:\PBP\16F877.INC"
                      00001 ;****************************************************************
                      00002 ;*  16F877.INC                                                  *
                      00003 ;*                                                              *
                      00004 ;*  By        : Leonard Zerman, Jeff Schmoyer                   *
                      00005 ;*  Notice    : Copyright (c) 2003 microEngineering Labs, Inc.  *
                      00006 ;*              All Rights Reserved                             *
                      00007 ;*  Date      : 11/07/03                                        *
                      00008 ;*  Version   : 2.45                                            *
                      00009 ;*  Notes     :                                                 *
                      00010 ;****************************************************************
                      00019         LIST
                      00020         LIST p = 16F877, r = dec, w = -302
                      00021         INCLUDE "P16F877.INC"   ; MPASM  Header
                      00001         LIST
                      00002 
                      00003 ;==========================================================================
                      00004 ;  MPASM PIC16F877 processor include
                      00005 ; 
                      00006 ;  (c) Copyright 1999-2012 Microchip Technology, All rights reserved
                      00007 ;==========================================================================
                      00008 
                      00540         LIST
2007   3F75           00022         __config _XT_OSC & _WDT_ON & _PWRTE_ON & _LVP_OFF & _CP_OFF
                      00025         LIST
                      00006 
                      00007 
                      00008 ; Define statements.
                      00009 ; C:\PBP\16F877.BAS             00018   DEFINE  CODE_SIZE 8
                      00010 #define         CODE_SIZE                8
                      00011 ; C:\USERS\HP\DESKTOP\DERSLER\MIKROD\5\DERS5_~1.PBP     00001   DEFINE LCD_DREG PORTD 'LCD data portunun
                             baðlandýðý pic portu'
                      00012 #define         LCD_DREG                 PORTD 
                      00013 ; C:\USERS\HP\DESKTOP\DERSLER\MIKROD\5\DERS5_~1.PBP     00002   DEFINE LCD_DBIT 0 '4-bit bus için data b
                            it(0 yada 4) baþlangýç'
                      00014 #define         LCD_DBIT                 0 
                      00015 ; C:\USERS\HP\DESKTOP\DERSLER\MIKROD\5\DERS5_~1.PBP     00003   DEFINE LCD_RSREG PORTE 'LCD RS in baðlan
                            dýðý pic portu'
                      00016 #define         LCD_RSREG                PORTE 
                      00017 ; C:\USERS\HP\DESKTOP\DERSLER\MIKROD\5\DERS5_~1.PBP     00004   DEFINE LCD_RSBIT 0 'RS'in baðlandýðý pic
                             portE nin bit numarasý'
                      00018 #define         LCD_RSBIT                0 
                      00019 ; C:\USERS\HP\DESKTOP\DERSLER\MIKROD\5\DERS5_~1.PBP     00005   DEFINE LCD_EREG PORTE 'LCD E'nin baðland
                            ýðý pic portu'
                      00020 #define         LCD_EREG                 PORTE 
                      00021 ; C:\USERS\HP\DESKTOP\DERSLER\MIKROD\5\DERS5_~1.PBP     00006   DEFINE LCD_EBIT 2 'LCD E'nin baðlandýðý 
                            pic portE nin bit numarasi'
                      00022 #define         LCD_EBIT                 2 
                      00023 ; C:\USERS\HP\DESKTOP\DERSLER\MIKROD\5\DERS5_~1.PBP     00007   DEFINE LCD_BITS 8 
MPASM  5.44                      DERS5_~1.ASM   1-15-2021  13:59:15         PAGE  2


LOC  OBJECT CODE     LINE SOURCE TEXT
  VALUE

                      00024 #define         LCD_BITS                 8 
                      00025 ; C:\USERS\HP\DESKTOP\DERSLER\MIKROD\5\DERS5_~1.PBP     00011   DEFINE HSER_RCSTA 90h
                      00026 #define         HSER_RCSTA               90h
                      00027 ; C:\USERS\HP\DESKTOP\DERSLER\MIKROD\5\DERS5_~1.PBP     00012   DEFINE HSER_TXSTA 24h
                      00028 #define         HSER_TXSTA               24h
                      00029 ; C:\USERS\HP\DESKTOP\DERSLER\MIKROD\5\DERS5_~1.PBP     00013   DEFINE HSER_BAUD 9600
                      00030 #define         HSER_BAUD                9600
                      00031 ; C:\USERS\HP\DESKTOP\DERSLER\MIKROD\5\DERS5_~1.PBP     00014   DEFINE HSER_CLROERR 1
                      00032 #define         HSER_CLROERR             1
                      00033 
  00000020            00034 RAM_START                       EQU     00020h
  000001EF            00035 RAM_END                         EQU     001EFh
  00000004            00036 RAM_BANKS                       EQU     00004h
  00000020            00037 BANK0_START                     EQU     00020h
  0000007F            00038 BANK0_END                       EQU     0007Fh
  000000A0            00039 BANK1_START                     EQU     000A0h
  000000EF            00040 BANK1_END                       EQU     000EFh
  00000110            00041 BANK2_START                     EQU     00110h
  0000016F            00042 BANK2_END                       EQU     0016Fh
  00000190            00043 BANK3_START                     EQU     00190h
  000001EF            00044 BANK3_END                       EQU     001EFh
  00002100            00045 EEPROM_START                    EQU     02100h
  000021FF            00046 EEPROM_END                      EQU     021FFh
                      00047 
                      00048 ; C:\PBP\PBPPIC14.RAM           00012   A00020  R0      VAR     WORD BANK0 SYSTEM       ' System Registe
                            r
  00000020            00049 R0                              EQU     RAM_START + 000h
                      00050 ; C:\PBP\PBPPIC14.RAM           00013   A00022  R1      VAR     WORD BANK0 SYSTEM       ' System Registe
                            r
  00000022            00051 R1                              EQU     RAM_START + 002h
                      00052 ; C:\PBP\PBPPIC14.RAM           00014   A00024  R2      VAR     WORD BANK0 SYSTEM       ' System Registe
                            r
  00000024            00053 R2                              EQU     RAM_START + 004h
                      00054 ; C:\PBP\PBPPIC14.RAM           00015   A00026  R3      VAR     WORD BANK0 SYSTEM       ' System Registe
                            r
  00000026            00055 R3                              EQU     RAM_START + 006h
                      00056 ; C:\PBP\PBPPIC14.RAM           00016   A00028  R4      VAR     WORD BANK0 SYSTEM       ' System Registe
                            r
  00000028            00057 R4                              EQU     RAM_START + 008h
                      00058 ; C:\PBP\PBPPIC14.RAM           00017   A0002A  R5      VAR     WORD BANK0 SYSTEM       ' System Registe
                            r
  0000002A            00059 R5                              EQU     RAM_START + 00Ah
                      00060 ; C:\PBP\PBPPIC14.RAM           00018   A0002C  R6      VAR     WORD BANK0 SYSTEM       ' System Registe
                            r
  0000002C            00061 R6                              EQU     RAM_START + 00Ch
                      00062 ; C:\PBP\PBPPIC14.RAM           00019   A0002E  R7      VAR     WORD BANK0 SYSTEM       ' System Registe
                            r
  0000002E            00063 R7                              EQU     RAM_START + 00Eh
                      00064 ; C:\PBP\PBPPIC14.RAM           00020   A00030  R8      VAR     WORD BANK0 SYSTEM       ' System Registe
                            r
  00000030            00065 R8                              EQU     RAM_START + 010h
                      00066 ; C:\PBP\PBPPIC14.RAM           00026   A00032  FLAGS   VAR     BYTE BANK0 SYSTEM       ' Static flags
  00000032            00067 FLAGS                           EQU     RAM_START + 012h
MPASM  5.44                      DERS5_~1.ASM   1-15-2021  13:59:15         PAGE  3


LOC  OBJECT CODE     LINE SOURCE TEXT
  VALUE

                      00068 ; C:\PBP\PBPPIC14.RAM           00025   A00033  GOP     VAR     BYTE BANK0 SYSTEM       ' Gen Op Paramet
                            er
  00000033            00069 GOP                             EQU     RAM_START + 013h
                      00070 ; C:\PBP\PBPPIC14.RAM           00022   A00034  RM1     VAR     BYTE BANK0 SYSTEM       ' Pin 1 Mask
  00000034            00071 RM1                             EQU     RAM_START + 014h
                      00072 ; C:\PBP\PBPPIC14.RAM           00024   A00035  RM2     VAR     BYTE BANK0 SYSTEM       ' Pin 2 Mask
  00000035            00073 RM2                             EQU     RAM_START + 015h
                      00074 ; C:\PBP\PBPPIC14.RAM           00021   A00036  RR1     VAR     BYTE BANK0 SYSTEM       ' Pin 1 Register
  00000036            00075 RR1                             EQU     RAM_START + 016h
                      00076 ; C:\PBP\PBPPIC14.RAM           00023   A00037  RR2     VAR     BYTE BANK0 SYSTEM       ' Pin 2 Register
  00000037            00077 RR2                             EQU     RAM_START + 017h
                      00078 ; C:\USERS\HP\DESKTOP\DERSLER\MIKROD\5\DERS5_~1.PBP     00017   A00038  i var byte
  00000038            00079 _i                              EQU     RAM_START + 018h
                      00080 ; C:\USERS\HP\DESKTOP\DERSLER\MIKROD\5\DERS5_~1.PBP     00018   A00039  j var byte
  00000039            00081 _j                              EQU     RAM_START + 019h
                      00082 ; C:\PBP\16F877.BAS             00022   PORTL   VAR     PORTB
  00000006            00083 _PORTL                          EQU      PORTB
                      00084 ; C:\PBP\16F877.BAS             00023   PORTH   VAR     PORTC
  00000007            00085 _PORTH                          EQU      PORTC
                      00086 ; C:\PBP\16F877.BAS             00024   TRISL   VAR     TRISB
  00000086            00087 _TRISL                          EQU      TRISB
                      00088 ; C:\PBP\16F877.BAS             00025   TRISH   VAR     TRISC
  00000087            00089 _TRISH                          EQU      TRISC
                      00090         INCLUDE "DERS5_~1.MAC"
                      00001 
                      00086         LIST
                      00091         INCLUDE "C:\PBP\PBPPIC14.LIB"
                      00001 ;******************************************************************
                      00002 ;*  PBPPIC14.LIB                                                  *
                      00003 ;*                                                                *
                      00004 ;*  By        : Leonard Zerman, Jeff Schmoyer                     *
                      00005 ;*  Notice    : Copyright (c) 2009 microEngineering Labs, Inc.    *
                      00006 ;*              All Rights Reserved                               *
                      00007 ;*  Date      : 07/08/09                                          *
                      00008 ;*  Version   : 2.60                                              *
                      00009 ;*  Notes     :                                                   *
                      00010 ;******************************************************************
                      00054   LIST
                      00055 ; Oscillator is 4MHz
                      01133   LIST
0000                  01134     ORG RESET_ORG               ; Reset vector usually at 0
                      01144   LIST
0000   01B2           01145         clrf    FLAGS           ; Clear all flags on reset
                      01149   LIST
0001   2876           01150         goto    INIT            ; Finish initialization
                      02283   LIST
0002                  02284 HSERIN
                      02285       ifdef HSER_CLROERR
0002   1898           02286         btfsc   RCSTA, OERR     ; Check for overflow error
0003   1218           02287         bcf     RCSTA, CREN     ; Toggle continuous receive to clear error
0004   1618           02288         bsf     RCSTA, CREN
                      02289       endif
                      02290 hserinloop CLRWDT?              ; Keep Watchdog timer clear
MPASM  5.44                      DERS5_~1.ASM   1-15-2021  13:59:15         PAGE  4


LOC  OBJECT CODE     LINE SOURCE TEXT
  VALUE

                          M     ifndef NO_CLRWDT
0005   0064               M         clrwdt
                          M     endif
0006   1E8C           02291         btfss   PIR1, RCIF      ; Check for char
0007   2805           02292         goto    hserinloop      ; Loop till char
                      02298   LIST
0008                  02299 HSERINX
                      02300       ifdef HSERPARITY_USED
                      02301           if ((HSER_BITS) == 9)
                      02302         rrf     RCSTA, W        ; Shuffle 9th bit to R4.0
                      02303         rlf     R4, F           ; (Ends up in R4.1)
                      02304           endif
                      02305       endif
                      02306 
0008   081A           02307         movf    RCREG, W        ; Get the char
                      02308 
                      02309       ifdef HSERPARITY_USED
                      02310         call    HSERPARITY      ; Calculate the parity
                      02311         rrf     GOP, F          ; Shuffle parity bit from GOP.0 to R4.0
                      02312         rlf     R4, F
                      02313           if ((HSER_BITS) != 9)
                      02314         andlw   7fh             ; Get rid of the parity bit
                      02315           else
                      02316         btfsc   R4, 1           ; Add in 9th bit, saved earlier
                      02317         incf    R4, F
                      02318           endif
                      02319           ifdef HSER_ODD
                      02320         incf    R4, F
                      02321           endif
                      02322       endif
                      02323 
0009   1403           02324         bsf     STATUS, C       ; Indicate not timed out (C set)
000A   2871           02325         goto    DONE            ; That's it
                      02931   LIST
000B   00A7           02932 LCDOUT  movwf   R3 + 1          ; Save char
                      02933 
000C   1109           02934         bcf     LCD_EREG, LCD_EBIT      ; Set E low
000D   1009           02935         bcf     LCD_RSREG, LCD_RSBIT    ; Set command register select
000E   1009           02936         bcf     LCD_RWREG, LCD_RWBIT    ; Set RW low (write)
                      02937 
000F   1683           02938         bsf     STATUS, RP0     ; Point to TRISes
0010   1109           02939         bcf     LCD_EREG, LCD_EBIT      ; Set E to output
0011   1009           02940         bcf     LCD_RSREG, LCD_RSBIT    ; Set RS to output
0012   1009           02941         bcf     LCD_RWREG, LCD_RWBIT    ; Set RW to output
                      02942     if ((LCD_BITS) == 8)
0013   0188           02943         clrf    LCD_DREG        ; Set port to all output
                      02944     else
                      02945       if ((LCD_DBIT) == 0)
                      02946         movlw   0f0h
                      02947       else
                      02948         movlw   0fh
                      02949       endif
                      02950         andwf   LCD_DREG, F     ; Set proper half of port to output
MPASM  5.44                      DERS5_~1.ASM   1-15-2021  13:59:15         PAGE  5


LOC  OBJECT CODE     LINE SOURCE TEXT
  VALUE

                      02951     endif
0014   1283           02952         bcf     STATUS, RP0     ; Point back to ports
                      02953 
0015   0827           02954         movf    R3 + 1, W       ; Get back char
                      02955 
0016   18B2           02956         btfsc   LCDINITFLAG     ; Has lcd been inititalized?
0017   2833           02957         goto    lcdout1         ; Yes
                      02958 
0018   303A           02959         movlw   high 15100      ; Wait at least 15ms
0019   00A1           02960         movwf   R0 + 1
001A   30FC           02961         movlw   low 15100
001B   205D           02962         call    PAUSEUSL
                      02963 
001C   3033           02964         movlw   33h             ; Init lcd
001D   00A6           02965         movwf   R3              ; Save char
001E   2046           02966         call    lcdloop         ; Send init
                      02967 
001F   3010           02968         movlw   high 4200       ; Wait at least 4.1ms
0020   00A1           02969         movwf   R0 + 1
0021   3068           02970         movlw   low 4200
0022   205D           02971         call    PAUSEUSL
                      02972 
0023   2046           02973         call    lcdloop         ; Send init (33) again
                      02974 
0024   3064           02975         movlw   100             ; Wait at least 100us
0025   205C           02976         call    PAUSEUS
                      02977 
                      02978     if ((LCD_BITS) == 8)
0026   2046           02979         call    lcdloop         ; Send init (33) one more time
                      02980       if ((LCD_LINES) == 1)
                      02981         movlw   30h             ; 8-bit mode, 1 line, 5x7 font
                      02982       else
0027   3038           02983         movlw   38h             ; 8-bit mode, 2+ lines, 5x7 font
                      02984       endif
                      02985     else
                      02986         movlw   22h             ; Send init to 4-bit mode
                      02987         movwf   R3              ; Save character
                      02988         call    lcdloop         ; Set interface to 4-bit mode
                      02989       if ((LCD_LINES) == 1)
                      02990         movlw   20h             ; 4-bit mode, 1 line, 5x7 font
                      02991       else
                      02992         movlw   28h             ; 4-bit mode, 2+ lines, 5x7 font
                      02993       endif
                      02994     endif
0028   2032           02995         call    lcdoutcom       ; Send function set
                      02996 
0029   300C           02997         movlw   0ch             ; Display on, no cursor, no blink
002A   2032           02998         call    lcdoutcom
                      02999 
002B   3001           03000         movlw   01h             ; Display clear
002C   2032           03001         call    lcdoutcom
                      03002 
002D   3006           03003         movlw   06h             ; Lcd entry mode set, increment, no shift
MPASM  5.44                      DERS5_~1.ASM   1-15-2021  13:59:15         PAGE  6


LOC  OBJECT CODE     LINE SOURCE TEXT
  VALUE

002E   2032           03004         call    lcdoutcom
                      03005 
002F   14B2           03006         bsf     LCDINITFLAG     ; Set to initialized
                      03007 
0030   0827           03008         movf    R3 + 1, W       ; Get saved char back (again)
0031   2833           03009         goto    lcdout1
                      03010 
0032   1432           03011 lcdoutcom bsf   LCDCDFLAG       ; Set for command
                      03012 
0033   00A6           03013 lcdout1 movwf   R3              ; Save char
0034   1C32           03014         btfss   LCDCDFLAG       ; Command this time?
0035   2841           03015         goto    lcdchkcd        ; No
                      03016 
0036   1009           03017         bcf     LCD_RSREG, LCD_RSBIT    ; Set command register select
0037   3C03           03018         sublw   3               ; Is it a slow command (clear screen or home)?
0038   1C03           03019         btfss   STATUS, C       ; Long or short delay?
0039   2846           03020         goto    lcdsend         ; Short delay
                      03021 
003A   2046           03022         call    lcdsend         ; Long delay (includes short delay)
003B   3007           03023         movlw   high LCD_COMMANDUS      ; Wait for command to complete
003C   00A1           03024         movwf   R0 + 1
003D   30D0           03025         movlw   low LCD_COMMANDUS
003E   205D           03026         call    PAUSEUSL
003F   1403           03027         bsf     STATUS, C       ; Set no timeout for Serout2mod
0040   0008           03028         return
                      03029 
0041   1432           03030 lcdchkcd bsf    LCDCDFLAG       ; Indicate first nibble (or command next time)
0042   3CFE           03031         sublw   0feh            ; Command next time? (char still in W)
0043   1903           03032         btfsc   STATUS, Z
0044   2871           03033         goto    DONE            ; Yes - nothing to do this time (C set for no timeout for Serout2mod)
                      03034 
0045   1409           03035         bsf     LCD_RSREG, LCD_RSBIT    ; Set data register select
                      03036 
0046                  03037 lcdsend
                      03038     if ((LCD_BITS) == 8)
0046   1509           03039 lcdloop bsf     LCD_EREG, LCD_EBIT      ; Enabled
0047   0826           03040         movf    R3, W           ; Get char back
0048   0088           03041         movwf   LCD_DREG        ; Write char to the port
                      03042       if (OSC > 16)
                      03043         nop                     ; Minimum 1us enable time
                      03044       endif
                      03045       if (OSC > 20)
                      03046         nop
                      03047       endif
0049   1032           03048         bcf     LCDCDFLAG       ; Indicate data next time
004A   1109           03049         bcf     LCD_EREG, LCD_EBIT      ; Not enabled
                      03050     else
                      03051 
                      03052       if ((LCD_DBIT) == 0)
                      03053         swapf   R3, F           ; Swap top and bottom nibbles
                      03054       endif
                      03055 
                      03056         btfss   LCDCDFLAG       ; First time through only
MPASM  5.44                      DERS5_~1.ASM   1-15-2021  13:59:15         PAGE  7


LOC  OBJECT CODE     LINE SOURCE TEXT
  VALUE

                      03057 lcdloop bcf     LCDCDFLAG       ; Indicate second nibble (and data next time)
                      03058 
                      03059         bsf     LCD_EREG, LCD_EBIT      ; Enabled
                      03060 
                      03061       if ((LCD_DBIT) == 0)
                      03062         movlw   0f0h            ; Clear lcd data port
                      03063       else
                      03064         movlw   0fh             ; Clear lcd data port
                      03065       endif
                      03066         andwf   LCD_DREG, F
                      03067 
                      03068         movf    R3, W           ; Isolate proper nibble of char
                      03069       if ((LCD_DBIT) == 0)
                      03070         andlw   0fh
                      03071       else
                      03072         andlw   0f0h
                      03073       endif
                      03074         iorwf   LCD_DREG, F     ; Write char to port
                      03075         bcf     LCD_EREG, LCD_EBIT      ; Not enabled - that's four
                      03076         swapf   R3, F           ; Get to other nibble
                      03077 
                      03078         btfsc   LCDCDFLAG       ; Need to send 4 more?
                      03079         goto    lcdloop         ; Send lower 4 to lcd
                      03080     endif
                      03081 
004B   3032           03082         movlw   LCD_DATAUS      ; Wait for data operation to complete
004C   205C           03083         call    PAUSEUS
004D   1403           03084         bsf     STATUS, C       ; Set no timeout for Serout2mod
004E   0008           03085         return
                      06329   LIST
004F   01A3           06330 PAUSE   clrf    R1 + 1
0050   00A2           06331 PAUSEL  movwf   R1
0051   30FF           06332 pauseloop movlw -1              ; 1 (9)
0052   07A2           06333         addwf   R1, F           ; 1
0053   1C03           06334         btfss   STATUS, C       ; 1 / 2
0054   07A3           06335         addwf   R1 + 1, F       ; 1 / 0
0055   1C03           06336         btfss   STATUS, C       ; 2
0056   2871           06337         goto    DONE
0057   3003           06338         movlw   (PAUSE_DELAY) >> 8      ; 1
0058   00A1           06339         movwf   R0 + 1          ; 1
0059   30DF           06340         movlw   low (PAUSE_DELAY)       ; 1
005A   205D           06341         call    PAUSEUSL        ; -2 (PAUSEUSL gives you 2 less than you ask for)
005B   2851           06342         goto    pauseloop       ; 2
                      06386   LIST
005C   01A1           06387 PAUSEUS clrf    R0 + 1          ; 1
005D   3EE8           06388 PAUSEUSL addlw  -24             ; 1 Subtract overhead
005E   00A0           06389         movwf   R0              ; 1
005F   09A1           06390         comf    R0 + 1, F       ; 1
0060   30FC           06391         movlw   -4              ; 1
0061   1C03           06392         btfss   STATUS, C       ; 1 / 2
0062   2866           06393         goto    pauseush        ; 2 / 0
0063   07A0           06394 pauseusloop addwf R0, F         ; 1
0064   1803           06395         btfsc   STATUS, C       ; 1 / 2
MPASM  5.44                      DERS5_~1.ASM   1-15-2021  13:59:15         PAGE  8


LOC  OBJECT CODE     LINE SOURCE TEXT
  VALUE

0065   2863           06396         goto    pauseusloop     ; 2 / 0
0066   07A0           06397 pauseush addwf  R0, F           ; 1 Do an extra countdown
                      06398         CLRWDT?NOP              ; 1 Keep Watchdog clear
                          M     ifndef NO_CLRWDT
0067   0064               M         clrwdt
                          M     else
                          M         nop
                          M     endif
0068   0FA1           06399         incfsz  R0 + 1, F       ; 1 / 2
0069   2863           06400         goto    pauseusloop     ; 2 / 0
006A   1820           06401         btfsc   R0, 0           ; 1 / 2
006B   286C           06402         goto    $ + 1           ; 2 / 0 Burn an extra cycle
006C   1CA0           06403         btfss   R0, 1           ; 1 / 2
006D   2870           06404         goto    pauseusdone     ; 2 / 0
006E   0000           06405         nop                     ; 1
006F   2870           06406         goto    $ + 1           ; 2 Burn an extra 2 cycles
0070   0008           06407 pauseusdone return              ; 2 + 3 (call + setup)
                      07766   LIST
0071   1383           07767 DONE    bcf     STATUS, IRP     ; 1 Set FSR to bank 0/1
0072   1303           07768         bcf     STATUS, RP1     ; 1 Show direct bank 0
0073   1283           07769         bcf     STATUS, RP0     ; 1
                      07770         CLRWDT?NOP              ; 1 Hit Watchdog timer
                          M     ifndef NO_CLRWDT
0074   0064               M         clrwdt
                          M     else
                          M         nop
                          M     endif
0075   0008           07771 DONERET return                  ; 2 Done
                      07797   LIST
0076                  07798 INIT
                      07801   LIST
                      07802         MOVE?CB HSER_SPBRG, SPBRG       ; Set baud rate generator reg
                          M         CHK?RP  SPBRG
                          M     if (((SPBRG) & 180h) == 0)
                          M       if (PREV_BANK == 1)
                          M         bcf     STATUS, RP0
                          M       endif
                          M       if (PREV_BANK == 2)
                          M         bcf     STATUS, RP1
                          M       endif
                          M       if (PREV_BANK == 3)
                          M         bcf     STATUS, RP0
                          M         bcf     STATUS, RP1
                          M       endif
                          M PREV_BANK = 0
                          M     endif
                          M 
                          M     if (((SPBRG) & 180h) == 80h)
                          M       if (PREV_BANK == 0)
0076   1683               M         bsf     STATUS, RP0
                          M       endif
                          M       if (PREV_BANK == 2)
                          M         bsf     STATUS, RP0
MPASM  5.44                      DERS5_~1.ASM   1-15-2021  13:59:15         PAGE  9


LOC  OBJECT CODE     LINE SOURCE TEXT
  VALUE

                          M         bcf     STATUS, RP1
                          M       endif
                          M       if (PREV_BANK == 3)
                          M         bcf     STATUS, RP1
                          M       endif
  00000001                M PREV_BANK = 1
                          M     endif
                          M 
                          M     if (((SPBRG) & 180h) == 100h)
                          M       if (PREV_BANK == 0)
                          M         bsf     STATUS, RP1
                          M       endif
                          M       if (PREV_BANK == 1)
                          M         bcf     STATUS, RP0
                          M         bsf     STATUS, RP1
                          M       endif
                          M       if (PREV_BANK == 3)
                          M         bcf     STATUS, RP0
                          M       endif
                          M PREV_BANK = 2
                          M     endif
                          M 
                          M     if (((SPBRG) & 180h) == 180h)
                          M       if (PREV_BANK == 0)
                          M         bsf     STATUS, RP0
                          M         bsf     STATUS, RP1
                          M       endif
                          M       if (PREV_BANK == 1)
                          M         bsf     STATUS, RP1
                          M       endif
                          M       if (PREV_BANK == 2)
                          M         bsf     STATUS, RP0
                          M       endif
                          M PREV_BANK = 3
                          M     endif
                          M     if (low (HSER_SPBRG) == 0)
                          M         clrf    SPBRG
                          M     else
0077   3019               M         movlw   low (HSER_SPBRG)
0078   0099               M         movwf   SPBRG
                          M     endif
                      07803     ifdef HSER_SPBRGH
                      07804       ifdef SPBRGH
                      07805         MOVE?CB HSER_SPBRGH, SPBRGH     ; Set baud rate generator reg high
                      07806       endif
                      07807     endif
                      07808         MOVE?CB HSER_TXSTA, TXSTA       ; Set transmit control reg
                          M         CHK?RP  TXSTA
                          M     if (((TXSTA) & 180h) == 0)
                          M       if (PREV_BANK == 1)
                          M         bcf     STATUS, RP0
                          M       endif
                          M       if (PREV_BANK == 2)
MPASM  5.44                      DERS5_~1.ASM   1-15-2021  13:59:15         PAGE 10


LOC  OBJECT CODE     LINE SOURCE TEXT
  VALUE

                          M         bcf     STATUS, RP1
                          M       endif
                          M       if (PREV_BANK == 3)
                          M         bcf     STATUS, RP0
                          M         bcf     STATUS, RP1
                          M       endif
                          M PREV_BANK = 0
                          M     endif
                          M 
                          M     if (((TXSTA) & 180h) == 80h)
                          M       if (PREV_BANK == 0)
                          M         bsf     STATUS, RP0
                          M       endif
                          M       if (PREV_BANK == 2)
                          M         bsf     STATUS, RP0
                          M         bcf     STATUS, RP1
                          M       endif
                          M       if (PREV_BANK == 3)
                          M         bcf     STATUS, RP1
                          M       endif
  00000001                M PREV_BANK = 1
                          M     endif
                          M 
                          M     if (((TXSTA) & 180h) == 100h)
                          M       if (PREV_BANK == 0)
                          M         bsf     STATUS, RP1
                          M       endif
                          M       if (PREV_BANK == 1)
                          M         bcf     STATUS, RP0
                          M         bsf     STATUS, RP1
                          M       endif
                          M       if (PREV_BANK == 3)
                          M         bcf     STATUS, RP0
                          M       endif
                          M PREV_BANK = 2
                          M     endif
                          M 
                          M     if (((TXSTA) & 180h) == 180h)
                          M       if (PREV_BANK == 0)
                          M         bsf     STATUS, RP0
                          M         bsf     STATUS, RP1
                          M       endif
                          M       if (PREV_BANK == 1)
                          M         bsf     STATUS, RP1
                          M       endif
                          M       if (PREV_BANK == 2)
                          M         bsf     STATUS, RP0
                          M       endif
                          M PREV_BANK = 3
                          M     endif
                          M     if (low (24h) == 0)
                          M         clrf    TXSTA
                          M     else
MPASM  5.44                      DERS5_~1.ASM   1-15-2021  13:59:15         PAGE 11


LOC  OBJECT CODE     LINE SOURCE TEXT
  VALUE

0079   3024               M         movlw   low (24h)
007A   0098               M         movwf   TXSTA
                          M     endif
                      07809         MOVE?CB HSER_RCSTA, RCSTA       ; Set receive control reg
                          M         CHK?RP  RCSTA
                          M     if (((RCSTA) & 180h) == 0)
                          M       if (PREV_BANK == 1)
007B   1283               M         bcf     STATUS, RP0
                          M       endif
                          M       if (PREV_BANK == 2)
                          M         bcf     STATUS, RP1
                          M       endif
                          M       if (PREV_BANK == 3)
                          M         bcf     STATUS, RP0
                          M         bcf     STATUS, RP1
                          M       endif
  00000000                M PREV_BANK = 0
                          M     endif
                          M 
                          M     if (((RCSTA) & 180h) == 80h)
                          M       if (PREV_BANK == 0)
                          M         bsf     STATUS, RP0
                          M       endif
                          M       if (PREV_BANK == 2)
                          M         bsf     STATUS, RP0
                          M         bcf     STATUS, RP1
                          M       endif
                          M       if (PREV_BANK == 3)
                          M         bcf     STATUS, RP1
                          M       endif
                          M PREV_BANK = 1
                          M     endif
                          M 
                          M     if (((RCSTA) & 180h) == 100h)
                          M       if (PREV_BANK == 0)
                          M         bsf     STATUS, RP1
                          M       endif
                          M       if (PREV_BANK == 1)
                          M         bcf     STATUS, RP0
                          M         bsf     STATUS, RP1
                          M       endif
                          M       if (PREV_BANK == 3)
                          M         bcf     STATUS, RP0
                          M       endif
                          M PREV_BANK = 2
                          M     endif
                          M 
                          M     if (((RCSTA) & 180h) == 180h)
                          M       if (PREV_BANK == 0)
                          M         bsf     STATUS, RP0
                          M         bsf     STATUS, RP1
                          M       endif
                          M       if (PREV_BANK == 1)
MPASM  5.44                      DERS5_~1.ASM   1-15-2021  13:59:15         PAGE 12


LOC  OBJECT CODE     LINE SOURCE TEXT
  VALUE

                          M         bsf     STATUS, RP1
                          M       endif
                          M       if (PREV_BANK == 2)
                          M         bsf     STATUS, RP0
                          M       endif
                          M PREV_BANK = 3
                          M     endif
                          M     if (low (90h) == 0)
                          M         clrf    RCSTA
                          M     else
007C   3090               M         movlw   low (90h)
007D   0098               M         movwf   RCSTA
                          M     endif
                      07836   LIST
007E                  07837 main
                      00092 
                      00093 
                      00094 ; C:\PBP\16F877.BAS             00012   BANK0   $0020, $007F
                      00095 ; C:\PBP\16F877.BAS             00013   BANK1   $00A0, $00EF
                      00096 ; C:\PBP\16F877.BAS             00014   BANK2   $0110, $016F
                      00097 ; C:\PBP\16F877.BAS             00015   BANK3   $0190, $01EF
                      00098 ; C:\PBP\16F877.BAS             00016   EEPROM  $2100, $21FF
                      00099 ; C:\PBP\16F877.BAS             00017   LIBRARY "PBPPIC14"
                      00100 ; C:\PBP\16F877.BAS             00018   DEFINE  CODE_SIZE 8
                      00101 
                      00102 ; C:\PBP\16F877.BAS             00020           include "PIC14EXT.BAS"
                      00103 
                      00104 ; C:\PBP\16F877.BAS             00027           include "PBPPIC14.RAM"
                      00105 ; C:\USERS\HP\DESKTOP\DERSLER\MIKROD\5\DERS5_~1.PBP     00001   DEFINE LCD_DREG PORTD 'LCD data portunun
                             baðlandýðý pic portu'
                      00106 ; C:\USERS\HP\DESKTOP\DERSLER\MIKROD\5\DERS5_~1.PBP     00002   DEFINE LCD_DBIT 0 '4-bit bus için data b
                            it(0 yada 4) baþlangýç'
                      00107 ; C:\USERS\HP\DESKTOP\DERSLER\MIKROD\5\DERS5_~1.PBP     00003   DEFINE LCD_RSREG PORTE 'LCD RS in baðlan
                            dýðý pic portu'
                      00108 ; C:\USERS\HP\DESKTOP\DERSLER\MIKROD\5\DERS5_~1.PBP     00004   DEFINE LCD_RSBIT 0 'RS'in baðlandýðý pic
                             portE nin bit numarasý'
                      00109 ; C:\USERS\HP\DESKTOP\DERSLER\MIKROD\5\DERS5_~1.PBP     00005   DEFINE LCD_EREG PORTE 'LCD E'nin baðland
                            ýðý pic portu'
                      00110 ; C:\USERS\HP\DESKTOP\DERSLER\MIKROD\5\DERS5_~1.PBP     00006   DEFINE LCD_EBIT 2 'LCD E'nin baðlandýðý 
                            pic portE nin bit numarasi'
                      00111 ; C:\USERS\HP\DESKTOP\DERSLER\MIKROD\5\DERS5_~1.PBP     00007   DEFINE LCD_BITS 8 
                      00112 
                      00113 ; C:\USERS\HP\DESKTOP\DERSLER\MIKROD\5\DERS5_~1.PBP     00008   ADCON1=7
                      00114         MOVE?CB 007h, ADCON1
                          M         CHK?RP  ADCON1
                          M     if (((ADCON1) & 180h) == 0)
                          M       if (PREV_BANK == 1)
                          M         bcf     STATUS, RP0
                          M       endif
                          M       if (PREV_BANK == 2)
                          M         bcf     STATUS, RP1
                          M       endif
                          M       if (PREV_BANK == 3)
MPASM  5.44                      DERS5_~1.ASM   1-15-2021  13:59:15         PAGE 13


LOC  OBJECT CODE     LINE SOURCE TEXT
  VALUE

                          M         bcf     STATUS, RP0
                          M         bcf     STATUS, RP1
                          M       endif
                          M PREV_BANK = 0
                          M     endif
                          M 
                          M     if (((ADCON1) & 180h) == 80h)
                          M       if (PREV_BANK == 0)
007E   1683               M         bsf     STATUS, RP0
                          M       endif
                          M       if (PREV_BANK == 2)
                          M         bsf     STATUS, RP0
                          M         bcf     STATUS, RP1
                          M       endif
                          M       if (PREV_BANK == 3)
                          M         bcf     STATUS, RP1
                          M       endif
  00000001                M PREV_BANK = 1
                          M     endif
                          M 
                          M     if (((ADCON1) & 180h) == 100h)
                          M       if (PREV_BANK == 0)
                          M         bsf     STATUS, RP1
                          M       endif
                          M       if (PREV_BANK == 1)
                          M         bcf     STATUS, RP0
                          M         bsf     STATUS, RP1
                          M       endif
                          M       if (PREV_BANK == 3)
                          M         bcf     STATUS, RP0
                          M       endif
                          M PREV_BANK = 2
                          M     endif
                          M 
                          M     if (((ADCON1) & 180h) == 180h)
                          M       if (PREV_BANK == 0)
                          M         bsf     STATUS, RP0
                          M         bsf     STATUS, RP1
                          M       endif
                          M       if (PREV_BANK == 1)
                          M         bsf     STATUS, RP1
                          M       endif
                          M       if (PREV_BANK == 2)
                          M         bsf     STATUS, RP0
                          M       endif
                          M PREV_BANK = 3
                          M     endif
                          M     if (low (007h) == 0)
                          M         clrf    ADCON1
                          M     else
007F   3007               M         movlw   low (007h)
0080   009F               M         movwf   ADCON1
                          M     endif
MPASM  5.44                      DERS5_~1.ASM   1-15-2021  13:59:15         PAGE 14


LOC  OBJECT CODE     LINE SOURCE TEXT
  VALUE

                      00115 
                      00116 ; C:\USERS\HP\DESKTOP\DERSLER\MIKROD\5\DERS5_~1.PBP     00009   PAUSE 100
                      00117         PAUSE?C 064h
                          M     if (((064h) >> 8) == 0)
                          M         MOVE?CA 064h
0081   3064               M         movlw   low (064h)
                          M         L?CALL  PAUSE
                          M         RST?RP
                          M     if ((PREV_BANK & 1) != 0)
0082   1283               M         bcf     STATUS, RP0
                          M     endif
                          M     if ((PREV_BANK & 2) != 0)
                          M         bcf     STATUS, RP1
                          M     endif
  00000000                M PREV_BANK = 0
                          M 
                          M     ifdef USE_LINKER
                          M       if (CODE_SIZE > 2)
                          M         pagesel PAUSE
                          M       endif
                          M     else
                          M       if ((PAUSE) < 1)
                          M         if (CODE_SIZE > 2)
                          M           if (((PAUSE) & 800h) == 0)
                          M         bcf     PCLATH, 3
                          M         else
                          M         bsf     PCLATH, 3
                          M         endif
                          M         endif
                          M         if (CODE_SIZE > 4)
                          M           if (((PAUSE) & 1000h) == 0)
                          M         bcf     PCLATH, 4
                          M           else
                          M         bsf     PCLATH, 4
                          M           endif
                          M         endif
                          M       else
                          M         if ((PAUSE) > $)
                          M           if (CODE_SIZE > 2)
                          M             if (((PAUSE) & 800h) == 0)
                          M         bcf     PCLATH, 3
                          M             else
                          M         bsf     PCLATH, 3
                          M             endif
                          M           endif
                          M           if (CODE_SIZE > 4)
                          M             if (((PAUSE) & 1000h) == 0)
                          M         bcf     PCLATH, 4
                          M             else
                          M         bsf     PCLATH, 4
                          M             endif
                          M           endif
                          M         else
MPASM  5.44                      DERS5_~1.ASM   1-15-2021  13:59:15         PAGE 15


LOC  OBJECT CODE     LINE SOURCE TEXT
  VALUE

                          M           if (CODE_SIZE > 2)
                          M             if (((PAUSE) & 1800h) == 0)
0083   018A               M         clrf    PCLATH
                          M             else
                          M               if (((PAUSE) & 800h) == 0)
                          M         bcf     PCLATH, 3
                          M               else
                          M         bsf     PCLATH, 3
                          M               endif
                          M               if (CODE_SIZE > 4)
                          M                 if (((PAUSE) & 1000h) == 0)
                          M         bcf     PCLATH, 4
                          M                 else
                          M         bsf     PCLATH, 4
                          M                 endif   
                          M               endif
                          M             endif
                          M           endif
                          M         endif
                          M       endif
                          M     endif
                          M 
0084   204F               M         call    PAUSE
                          M     else
                          M         MOVE?CB (064h) >> 8, R1 + 1
                          M         MOVE?CA low (064h)
                          M         L?CALL  PAUSEL
                          M     endif
                      00118 ; C:\USERS\HP\DESKTOP\DERSLER\MIKROD\5\DERS5_~1.PBP     00011   DEFINE HSER_RCSTA 90h
                      00119 ; C:\USERS\HP\DESKTOP\DERSLER\MIKROD\5\DERS5_~1.PBP     00012   DEFINE HSER_TXSTA 24h
                      00120 ; C:\USERS\HP\DESKTOP\DERSLER\MIKROD\5\DERS5_~1.PBP     00013   DEFINE HSER_BAUD 9600
                      00121 ; C:\USERS\HP\DESKTOP\DERSLER\MIKROD\5\DERS5_~1.PBP     00014   DEFINE HSER_CLROERR 1
                      00122 
                      00123 ; C:\USERS\HP\DESKTOP\DERSLER\MIKROD\5\DERS5_~1.PBP     00020   label:
                      00124 
                      00125         LABEL?L _label  
                          M         RST?RP
                          M     if ((PREV_BANK & 1) != 0)
                          M         bcf     STATUS, RP0
                          M     endif
                          M     if ((PREV_BANK & 2) != 0)
                          M         bcf     STATUS, RP1
                          M     endif
  00000000                M PREV_BANK = 0
                          M     ifdef PM_USED
                          M         LALL
                          M _label
                          M         XALL
                          M     else
0085                      M _label
                          M     endif
                      00126 
                      00127 ; C:\USERS\HP\DESKTOP\DERSLER\MIKROD\5\DERS5_~1.PBP     00022   hserin [i]
MPASM  5.44                      DERS5_~1.ASM   1-15-2021  13:59:15         PAGE 16


LOC  OBJECT CODE     LINE SOURCE TEXT
  VALUE

                      00128         HSERIN?B        _i
                          M         L?CALL  HSERIN
                          M         RST?RP
                          M     if ((PREV_BANK & 1) != 0)
                          M         bcf     STATUS, RP0
                          M     endif
                          M     if ((PREV_BANK & 2) != 0)
                          M         bcf     STATUS, RP1
                          M     endif
  00000000                M PREV_BANK = 0
                          M 
                          M     ifdef USE_LINKER
                          M       if (CODE_SIZE > 2)
                          M         pagesel HSERIN
                          M       endif
                          M     else
                          M       if ((HSERIN) < 1)
                          M         if (CODE_SIZE > 2)
                          M           if (((HSERIN) & 800h) == 0)
                          M         bcf     PCLATH, 3
                          M         else
                          M         bsf     PCLATH, 3
                          M         endif
                          M         endif
                          M         if (CODE_SIZE > 4)
                          M           if (((HSERIN) & 1000h) == 0)
                          M         bcf     PCLATH, 4
                          M           else
                          M         bsf     PCLATH, 4
                          M           endif
                          M         endif
                          M       else
                          M         if ((HSERIN) > $)
                          M           if (CODE_SIZE > 2)
                          M             if (((HSERIN) & 800h) == 0)
                          M         bcf     PCLATH, 3
                          M             else
                          M         bsf     PCLATH, 3
                          M             endif
                          M           endif
                          M           if (CODE_SIZE > 4)
                          M             if (((HSERIN) & 1000h) == 0)
                          M         bcf     PCLATH, 4
                          M             else
                          M         bsf     PCLATH, 4
                          M             endif
                          M           endif
                          M         else
                          M           if (CODE_SIZE > 2)
                          M             if (((HSERIN) & 1800h) == 0)
0085   018A               M         clrf    PCLATH
                          M             else
                          M               if (((HSERIN) & 800h) == 0)
MPASM  5.44                      DERS5_~1.ASM   1-15-2021  13:59:15         PAGE 17


LOC  OBJECT CODE     LINE SOURCE TEXT
  VALUE

                          M         bcf     PCLATH, 3
                          M               else
                          M         bsf     PCLATH, 3
                          M               endif
                          M               if (CODE_SIZE > 4)
                          M                 if (((HSERIN) & 1000h) == 0)
                          M         bcf     PCLATH, 4
                          M                 else
                          M         bsf     PCLATH, 4
                          M                 endif   
                          M               endif
                          M             endif
                          M           endif
                          M         endif
                          M       endif
                          M     endif
                          M 
0086   2002               M         call    HSERIN
                          M         MOVE?AB _i
                          M         CHK?RP  _i
                          M     if (((_i)    & 180h) == 0)
                          M       if (PREV_BANK == 1)
                          M         bcf     STATUS, RP0
                          M       endif
                          M       if (PREV_BANK == 2)
                          M         bcf     STATUS, RP1
                          M       endif
                          M       if (PREV_BANK == 3)
                          M         bcf     STATUS, RP0
                          M         bcf     STATUS, RP1
                          M       endif
  00000000                M PREV_BANK = 0
                          M     endif
                          M 
                          M     if (((_i)    & 180h) == 80h)
                          M       if (PREV_BANK == 0)
                          M         bsf     STATUS, RP0
                          M       endif
                          M       if (PREV_BANK == 2)
                          M         bsf     STATUS, RP0
                          M         bcf     STATUS, RP1
                          M       endif
                          M       if (PREV_BANK == 3)
                          M         bcf     STATUS, RP1
                          M       endif
                          M PREV_BANK = 1
                          M     endif
                          M 
                          M     if (((_i)    & 180h) == 100h)
                          M       if (PREV_BANK == 0)
                          M         bsf     STATUS, RP1
                          M       endif
                          M       if (PREV_BANK == 1)
MPASM  5.44                      DERS5_~1.ASM   1-15-2021  13:59:15         PAGE 18


LOC  OBJECT CODE     LINE SOURCE TEXT
  VALUE

                          M         bcf     STATUS, RP0
                          M         bsf     STATUS, RP1
                          M       endif
                          M       if (PREV_BANK == 3)
                          M         bcf     STATUS, RP0
                          M       endif
                          M PREV_BANK = 2
                          M     endif
                          M 
                          M     if (((_i)    & 180h) == 180h)
                          M       if (PREV_BANK == 0)
                          M         bsf     STATUS, RP0
                          M         bsf     STATUS, RP1
                          M       endif
                          M       if (PREV_BANK == 1)
                          M         bsf     STATUS, RP1
                          M       endif
                          M       if (PREV_BANK == 2)
                          M         bsf     STATUS, RP0
                          M       endif
                          M PREV_BANK = 3
                          M     endif
0087   00B8               M         movwf   _i
                      00129 
                      00130 ; C:\USERS\HP\DESKTOP\DERSLER\MIKROD\5\DERS5_~1.PBP     00024   select case j
                      00131 
                      00132 ; C:\USERS\HP\DESKTOP\DERSLER\MIKROD\5\DERS5_~1.PBP     00025       case 0
                      00133         CMPNE?BCL       _j, 000h, L00003
                          M     if (((000h) > -100h) & ((000h) < 100h))
                          M         CLRWDT?
                          M     ifndef NO_CLRWDT
0088   0064               M         clrwdt
                          M     endif
                          M         MOVE?BA _j
                          M         CHK?RP  _j
                          M     if (((_j)    & 180h) == 0)
                          M       if (PREV_BANK == 1)
                          M         bcf     STATUS, RP0
                          M       endif
                          M       if (PREV_BANK == 2)
                          M         bcf     STATUS, RP1
                          M       endif
                          M       if (PREV_BANK == 3)
                          M         bcf     STATUS, RP0
                          M         bcf     STATUS, RP1
                          M       endif
  00000000                M PREV_BANK = 0
                          M     endif
                          M 
                          M     if (((_j)    & 180h) == 80h)
                          M       if (PREV_BANK == 0)
                          M         bsf     STATUS, RP0
                          M       endif
MPASM  5.44                      DERS5_~1.ASM   1-15-2021  13:59:15         PAGE 19


LOC  OBJECT CODE     LINE SOURCE TEXT
  VALUE

                          M       if (PREV_BANK == 2)
                          M         bsf     STATUS, RP0
                          M         bcf     STATUS, RP1
                          M       endif
                          M       if (PREV_BANK == 3)
                          M         bcf     STATUS, RP1
                          M       endif
                          M PREV_BANK = 1
                          M     endif
                          M 
                          M     if (((_j)    & 180h) == 100h)
                          M       if (PREV_BANK == 0)
                          M         bsf     STATUS, RP1
                          M       endif
                          M       if (PREV_BANK == 1)
                          M         bcf     STATUS, RP0
                          M         bsf     STATUS, RP1
                          M       endif
                          M       if (PREV_BANK == 3)
                          M         bcf     STATUS, RP0
                          M       endif
                          M PREV_BANK = 2
                          M     endif
                          M 
                          M     if (((_j)    & 180h) == 180h)
                          M       if (PREV_BANK == 0)
                          M         bsf     STATUS, RP0
                          M         bsf     STATUS, RP1
                          M       endif
                          M       if (PREV_BANK == 1)
                          M         bsf     STATUS, RP1
                          M       endif
                          M       if (PREV_BANK == 2)
                          M         bsf     STATUS, RP0
                          M       endif
                          M PREV_BANK = 3
                          M     endif
0089   0839               M         movf    _j,  W
008A   3C00               M         sublw   000h
                          M         BIT?GOTO 0, STATUS, Z, L00003
                          M     ifdef USE_LINKER
                          M         CLRWDT?
                          M     else
                          M       if ($ == (L00003))
                          M         CLRWDT?
                          M       endif
                          M     endif
                          M 
                          M     ifdef USE_LINKER
                          M       if (CODE_SIZE > 2)
                          M         pagesel L00003
                          M       endif
                          M     else
MPASM  5.44                      DERS5_~1.ASM   1-15-2021  13:59:15         PAGE 20


LOC  OBJECT CODE     LINE SOURCE TEXT
  VALUE

                          M       if (CODE_SIZE > 2)
                          M         if (((L00003) & 800h) == 0)
008B   118A               M         bcf     PCLATH, 3
                          M         else
                          M         bsf     PCLATH, 3
                          M         endif
                          M       endif
                          M       if (CODE_SIZE > 4)
                          M         if (((L00003) & 1000h) == 0)
008C   120A               M         bcf     PCLATH, 4
                          M         else
                          M         bsf     PCLATH, 4
                          M         endif
                          M       endif
                          M     endif
                          M 
                          M     if (((STATUS) & 0ff80h) != 0)
                          M         CHK?RP  STATUS
                          M         bcf     STATUS, DC
                          M       if ((0)      == 0)
                          M         btfss   STATUS, Z
                          M       else
                          M         btfsc   STATUS, Z
                          M       endif
                          M         bsf     STATUS, DC
                          M         RST?RP
                          M         btfsc   STATUS, DC
                          M     else
                          M         RST?RP
                          M     if ((PREV_BANK & 1) != 0)
                          M         bcf     STATUS, RP0
                          M     endif
                          M     if ((PREV_BANK & 2) != 0)
                          M         bcf     STATUS, RP1
                          M     endif
  00000000                M PREV_BANK = 0
                          M       if ((0)      == 0)
008D   1D03               M         btfss   STATUS, Z
                          M       else
                          M         btfsc   STATUS, Z
                          M       endif
                          M     endif
                          M 
008E   289B               M         goto    L00003
                          M     else
                          M         L?GOTO  L00003
                          M     endif
                      00134 
                      00135 ; C:\USERS\HP\DESKTOP\DERSLER\MIKROD\5\DERS5_~1.PBP     00026           lcdout $fe,129,i
                      00136         LCDOUT?C        0FEh
008F   30FE               M         movlw   0FEh
                          M         L?CALL  LCDOUT
                          M         RST?RP
MPASM  5.44                      DERS5_~1.ASM   1-15-2021  13:59:15         PAGE 21


LOC  OBJECT CODE     LINE SOURCE TEXT
  VALUE

                          M     if ((PREV_BANK & 1) != 0)
                          M         bcf     STATUS, RP0
                          M     endif
                          M     if ((PREV_BANK & 2) != 0)
                          M         bcf     STATUS, RP1
                          M     endif
  00000000                M PREV_BANK = 0
                          M 
                          M     ifdef USE_LINKER
                          M       if (CODE_SIZE > 2)
                          M         pagesel LCDOUT
                          M       endif
                          M     else
                          M       if ((LCDOUT) < 1)
                          M         if (CODE_SIZE > 2)
                          M           if (((LCDOUT) & 800h) == 0)
                          M         bcf     PCLATH, 3
                          M         else
                          M         bsf     PCLATH, 3
                          M         endif
                          M         endif
                          M         if (CODE_SIZE > 4)
                          M           if (((LCDOUT) & 1000h) == 0)
                          M         bcf     PCLATH, 4
                          M           else
                          M         bsf     PCLATH, 4
                          M           endif
                          M         endif
                          M       else
                          M         if ((LCDOUT) > $)
                          M           if (CODE_SIZE > 2)
                          M             if (((LCDOUT) & 800h) == 0)
                          M         bcf     PCLATH, 3
                          M             else
                          M         bsf     PCLATH, 3
                          M             endif
                          M           endif
                          M           if (CODE_SIZE > 4)
                          M             if (((LCDOUT) & 1000h) == 0)
                          M         bcf     PCLATH, 4
                          M             else
                          M         bsf     PCLATH, 4
                          M             endif
                          M           endif
                          M         else
                          M           if (CODE_SIZE > 2)
                          M             if (((LCDOUT) & 1800h) == 0)
0090   018A               M         clrf    PCLATH
                          M             else
                          M               if (((LCDOUT) & 800h) == 0)
                          M         bcf     PCLATH, 3
                          M               else
                          M         bsf     PCLATH, 3
MPASM  5.44                      DERS5_~1.ASM   1-15-2021  13:59:15         PAGE 22


LOC  OBJECT CODE     LINE SOURCE TEXT
  VALUE

                          M               endif
                          M               if (CODE_SIZE > 4)
                          M                 if (((LCDOUT) & 1000h) == 0)
                          M         bcf     PCLATH, 4
                          M                 else
                          M         bsf     PCLATH, 4
                          M                 endif   
                          M               endif
                          M             endif
                          M           endif
                          M         endif
                          M       endif
                          M     endif
                          M 
0091   200B               M         call    LCDOUT
                      00137         LCDOUT?C        081h
0092   3081               M         movlw   081h
                          M         L?CALL  LCDOUT
                          M         RST?RP
                          M     if ((PREV_BANK & 1) != 0)
                          M         bcf     STATUS, RP0
                          M     endif
                          M     if ((PREV_BANK & 2) != 0)
                          M         bcf     STATUS, RP1
                          M     endif
  00000000                M PREV_BANK = 0
                          M 
                          M     ifdef USE_LINKER
                          M       if (CODE_SIZE > 2)
                          M         pagesel LCDOUT
                          M       endif
                          M     else
                          M       if ((LCDOUT) < 1)
                          M         if (CODE_SIZE > 2)
                          M           if (((LCDOUT) & 800h) == 0)
                          M         bcf     PCLATH, 3
                          M         else
                          M         bsf     PCLATH, 3
                          M         endif
                          M         endif
                          M         if (CODE_SIZE > 4)
                          M           if (((LCDOUT) & 1000h) == 0)
                          M         bcf     PCLATH, 4
                          M           else
                          M         bsf     PCLATH, 4
                          M           endif
                          M         endif
                          M       else
                          M         if ((LCDOUT) > $)
                          M           if (CODE_SIZE > 2)
                          M             if (((LCDOUT) & 800h) == 0)
                          M         bcf     PCLATH, 3
                          M             else
MPASM  5.44                      DERS5_~1.ASM   1-15-2021  13:59:15         PAGE 23


LOC  OBJECT CODE     LINE SOURCE TEXT
  VALUE

                          M         bsf     PCLATH, 3
                          M             endif
                          M           endif
                          M           if (CODE_SIZE > 4)
                          M             if (((LCDOUT) & 1000h) == 0)
                          M         bcf     PCLATH, 4
                          M             else
                          M         bsf     PCLATH, 4
                          M             endif
                          M           endif
                          M         else
                          M           if (CODE_SIZE > 2)
                          M             if (((LCDOUT) & 1800h) == 0)
0093   018A               M         clrf    PCLATH
                          M             else
                          M               if (((LCDOUT) & 800h) == 0)
                          M         bcf     PCLATH, 3
                          M               else
                          M         bsf     PCLATH, 3
                          M               endif
                          M               if (CODE_SIZE > 4)
                          M                 if (((LCDOUT) & 1000h) == 0)
                          M         bcf     PCLATH, 4
                          M                 else
                          M         bsf     PCLATH, 4
                          M                 endif   
                          M               endif
                          M             endif
                          M           endif
                          M         endif
                          M       endif
                          M     endif
                          M 
0094   200B               M         call    LCDOUT
                      00138         LCDOUT?B        _i
                          M         MOVE?BA _i
                          M         CHK?RP  _i
                          M     if (((_i)    & 180h) == 0)
                          M       if (PREV_BANK == 1)
                          M         bcf     STATUS, RP0
                          M       endif
                          M       if (PREV_BANK == 2)
                          M         bcf     STATUS, RP1
                          M       endif
                          M       if (PREV_BANK == 3)
                          M         bcf     STATUS, RP0
                          M         bcf     STATUS, RP1
                          M       endif
  00000000                M PREV_BANK = 0
                          M     endif
                          M 
                          M     if (((_i)    & 180h) == 80h)
                          M       if (PREV_BANK == 0)
MPASM  5.44                      DERS5_~1.ASM   1-15-2021  13:59:15         PAGE 24


LOC  OBJECT CODE     LINE SOURCE TEXT
  VALUE

                          M         bsf     STATUS, RP0
                          M       endif
                          M       if (PREV_BANK == 2)
                          M         bsf     STATUS, RP0
                          M         bcf     STATUS, RP1
                          M       endif
                          M       if (PREV_BANK == 3)
                          M         bcf     STATUS, RP1
                          M       endif
                          M PREV_BANK = 1
                          M     endif
                          M 
                          M     if (((_i)    & 180h) == 100h)
                          M       if (PREV_BANK == 0)
                          M         bsf     STATUS, RP1
                          M       endif
                          M       if (PREV_BANK == 1)
                          M         bcf     STATUS, RP0
                          M         bsf     STATUS, RP1
                          M       endif
                          M       if (PREV_BANK == 3)
                          M         bcf     STATUS, RP0
                          M       endif
                          M PREV_BANK = 2
                          M     endif
                          M 
                          M     if (((_i)    & 180h) == 180h)
                          M       if (PREV_BANK == 0)
                          M         bsf     STATUS, RP0
                          M         bsf     STATUS, RP1
                          M       endif
                          M       if (PREV_BANK == 1)
                          M         bsf     STATUS, RP1
                          M       endif
                          M       if (PREV_BANK == 2)
                          M         bsf     STATUS, RP0
                          M       endif
                          M PREV_BANK = 3
                          M     endif
0095   0838               M         movf    _i,  W
                          M         L?CALL  LCDOUT
                          M         RST?RP
                          M     if ((PREV_BANK & 1) != 0)
                          M         bcf     STATUS, RP0
                          M     endif
                          M     if ((PREV_BANK & 2) != 0)
                          M         bcf     STATUS, RP1
                          M     endif
  00000000                M PREV_BANK = 0
                          M 
                          M     ifdef USE_LINKER
                          M       if (CODE_SIZE > 2)
                          M         pagesel LCDOUT
MPASM  5.44                      DERS5_~1.ASM   1-15-2021  13:59:15         PAGE 25


LOC  OBJECT CODE     LINE SOURCE TEXT
  VALUE

                          M       endif
                          M     else
                          M       if ((LCDOUT) < 1)
                          M         if (CODE_SIZE > 2)
                          M           if (((LCDOUT) & 800h) == 0)
                          M         bcf     PCLATH, 3
                          M         else
                          M         bsf     PCLATH, 3
                          M         endif
                          M         endif
                          M         if (CODE_SIZE > 4)
                          M           if (((LCDOUT) & 1000h) == 0)
                          M         bcf     PCLATH, 4
                          M           else
                          M         bsf     PCLATH, 4
                          M           endif
                          M         endif
                          M       else
                          M         if ((LCDOUT) > $)
                          M           if (CODE_SIZE > 2)
                          M             if (((LCDOUT) & 800h) == 0)
                          M         bcf     PCLATH, 3
                          M             else
                          M         bsf     PCLATH, 3
                          M             endif
                          M           endif
                          M           if (CODE_SIZE > 4)
                          M             if (((LCDOUT) & 1000h) == 0)
                          M         bcf     PCLATH, 4
                          M             else
                          M         bsf     PCLATH, 4
                          M             endif
                          M           endif
                          M         else
                          M           if (CODE_SIZE > 2)
                          M             if (((LCDOUT) & 1800h) == 0)
0096   018A               M         clrf    PCLATH
                          M             else
                          M               if (((LCDOUT) & 800h) == 0)
                          M         bcf     PCLATH, 3
                          M               else
                          M         bsf     PCLATH, 3
                          M               endif
                          M               if (CODE_SIZE > 4)
                          M                 if (((LCDOUT) & 1000h) == 0)
                          M         bcf     PCLATH, 4
                          M                 else
                          M         bsf     PCLATH, 4
                          M                 endif   
                          M               endif
                          M             endif
                          M           endif
                          M         endif
MPASM  5.44                      DERS5_~1.ASM   1-15-2021  13:59:15         PAGE 26


LOC  OBJECT CODE     LINE SOURCE TEXT
  VALUE

                          M       endif
                          M     endif
                          M 
0097   200B               M         call    LCDOUT
                      00139 
                      00140 ; C:\USERS\HP\DESKTOP\DERSLER\MIKROD\5\DERS5_~1.PBP     00027       case 1
                      00141         GOTO?L  L00002
                          M         L?GOTO  L00002
                          M     ifdef USE_LINKER
                          M         CLRWDT?
                          M     else
                          M       if ($ == (L00002))
                          M         CLRWDT?
                          M       endif
                          M     endif
                          M 
                          M         RST?RP
                          M     if ((PREV_BANK & 1) != 0)
                          M         bcf     STATUS, RP0
                          M     endif
                          M     if ((PREV_BANK & 2) != 0)
                          M         bcf     STATUS, RP1
                          M     endif
  00000000                M PREV_BANK = 0
                          M 
                          M     ifdef USE_LINKER
                          M       if (CODE_SIZE > 2)
                          M         pagesel L00002
                          M       endif
                          M     else
                          M       if ((L00002) < 1)
                          M         if (CODE_SIZE > 2)
                          M           if (((L00002) & 800h) == 0)
                          M         bcf     PCLATH, 3
                          M           else
                          M         bsf     PCLATH, 3
                          M           endif
                          M         endif
                          M         if (CODE_SIZE > 4)
                          M           if (((L00002) & 1000h) == 0)
                          M         bcf     PCLATH, 4
                          M           else
                          M         bsf     PCLATH, 4
                          M           endif
                          M         endif
                          M       else
                          M         if ((L00002) > $)
                          M           if (CODE_SIZE > 2)
                          M             if (((L00002) & 800h) == 0)
0098   118A               M         bcf     PCLATH, 3
                          M             else
                          M         bsf     PCLATH, 3
                          M             endif
MPASM  5.44                      DERS5_~1.ASM   1-15-2021  13:59:15         PAGE 27


LOC  OBJECT CODE     LINE SOURCE TEXT
  VALUE

                          M           endif
                          M           if (CODE_SIZE > 4)
                          M             if (((L00002) & 1000h) == 0)
0099   120A               M         bcf     PCLATH, 4
                          M             else
                          M         bsf     PCLATH, 4
                          M             endif
                          M           endif
                          M         else
                          M           if (CODE_SIZE > 2)
                          M             if (((L00002) & 1800h) == 0)
                          M         clrf    PCLATH
                          M             else
                          M               if (((L00002) & 800h) == 0)
                          M         bcf     PCLATH, 3
                          M               else
                          M         bsf     PCLATH, 3
                          M               endif
                          M               if (CODE_SIZE > 4)
                          M                 if (((L00002) & 1000h) == 0)
                          M         bcf     PCLATH, 4
                          M                 else
                          M         bsf     PCLATH, 4
                          M                 endif
                          M               endif
                          M             endif
                          M           endif
                          M         endif
                          M       endif
                          M     endif
                          M 
009A   28BE               M         goto    L00002
                      00142         LABEL?L L00003  
                          M         RST?RP
                          M     if ((PREV_BANK & 1) != 0)
                          M         bcf     STATUS, RP0
                          M     endif
                          M     if ((PREV_BANK & 2) != 0)
                          M         bcf     STATUS, RP1
                          M     endif
  00000000                M PREV_BANK = 0
                          M     ifdef PM_USED
                          M         LALL
                          M L00003
                          M         XALL
                          M     else
009B                      M L00003
                          M     endif
                      00143         CMPNE?BCL       _j, 001h, L00004
                          M     if (((001h) > -100h) & ((001h) < 100h))
                          M         CLRWDT?
                          M     ifndef NO_CLRWDT
009B   0064               M         clrwdt
MPASM  5.44                      DERS5_~1.ASM   1-15-2021  13:59:15         PAGE 28


LOC  OBJECT CODE     LINE SOURCE TEXT
  VALUE

                          M     endif
                          M         MOVE?BA _j
                          M         CHK?RP  _j
                          M     if (((_j)    & 180h) == 0)
                          M       if (PREV_BANK == 1)
                          M         bcf     STATUS, RP0
                          M       endif
                          M       if (PREV_BANK == 2)
                          M         bcf     STATUS, RP1
                          M       endif
                          M       if (PREV_BANK == 3)
                          M         bcf     STATUS, RP0
                          M         bcf     STATUS, RP1
                          M       endif
  00000000                M PREV_BANK = 0
                          M     endif
                          M 
                          M     if (((_j)    & 180h) == 80h)
                          M       if (PREV_BANK == 0)
                          M         bsf     STATUS, RP0
                          M       endif
                          M       if (PREV_BANK == 2)
                          M         bsf     STATUS, RP0
                          M         bcf     STATUS, RP1
                          M       endif
                          M       if (PREV_BANK == 3)
                          M         bcf     STATUS, RP1
                          M       endif
                          M PREV_BANK = 1
                          M     endif
                          M 
                          M     if (((_j)    & 180h) == 100h)
                          M       if (PREV_BANK == 0)
                          M         bsf     STATUS, RP1
                          M       endif
                          M       if (PREV_BANK == 1)
                          M         bcf     STATUS, RP0
                          M         bsf     STATUS, RP1
                          M       endif
                          M       if (PREV_BANK == 3)
                          M         bcf     STATUS, RP0
                          M       endif
                          M PREV_BANK = 2
                          M     endif
                          M 
                          M     if (((_j)    & 180h) == 180h)
                          M       if (PREV_BANK == 0)
                          M         bsf     STATUS, RP0
                          M         bsf     STATUS, RP1
                          M       endif
                          M       if (PREV_BANK == 1)
                          M         bsf     STATUS, RP1
                          M       endif
MPASM  5.44                      DERS5_~1.ASM   1-15-2021  13:59:15         PAGE 29


LOC  OBJECT CODE     LINE SOURCE TEXT
  VALUE

                          M       if (PREV_BANK == 2)
                          M         bsf     STATUS, RP0
                          M       endif
                          M PREV_BANK = 3
                          M     endif
009C   0839               M         movf    _j,  W
009D   3C01               M         sublw   001h
                          M         BIT?GOTO 0, STATUS, Z, L00004
                          M     ifdef USE_LINKER
                          M         CLRWDT?
                          M     else
                          M       if ($ == (L00004))
                          M         CLRWDT?
                          M       endif
                          M     endif
                          M 
                          M     ifdef USE_LINKER
                          M       if (CODE_SIZE > 2)
                          M         pagesel L00004
                          M       endif
                          M     else
                          M       if (CODE_SIZE > 2)
                          M         if (((L00004) & 800h) == 0)
009E   118A               M         bcf     PCLATH, 3
                          M         else
                          M         bsf     PCLATH, 3
                          M         endif
                          M       endif
                          M       if (CODE_SIZE > 4)
                          M         if (((L00004) & 1000h) == 0)
009F   120A               M         bcf     PCLATH, 4
                          M         else
                          M         bsf     PCLATH, 4
                          M         endif
                          M       endif
                          M     endif
                          M 
                          M     if (((STATUS) & 0ff80h) != 0)
                          M         CHK?RP  STATUS
                          M         bcf     STATUS, DC
                          M       if ((0)      == 0)
                          M         btfss   STATUS, Z
                          M       else
                          M         btfsc   STATUS, Z
                          M       endif
                          M         bsf     STATUS, DC
                          M         RST?RP
                          M         btfsc   STATUS, DC
                          M     else
                          M         RST?RP
                          M     if ((PREV_BANK & 1) != 0)
                          M         bcf     STATUS, RP0
                          M     endif
MPASM  5.44                      DERS5_~1.ASM   1-15-2021  13:59:15         PAGE 30


LOC  OBJECT CODE     LINE SOURCE TEXT
  VALUE

                          M     if ((PREV_BANK & 2) != 0)
                          M         bcf     STATUS, RP1
                          M     endif
  00000000                M PREV_BANK = 0
                          M       if ((0)      == 0)
00A0   1D03               M         btfss   STATUS, Z
                          M       else
                          M         btfsc   STATUS, Z
                          M       endif
                          M     endif
                          M 
00A1   28AE               M         goto    L00004
                          M     else
                          M         L?GOTO  L00004
                          M     endif
                      00144 
                      00145 ; C:\USERS\HP\DESKTOP\DERSLER\MIKROD\5\DERS5_~1.PBP     00028           lcdout $fe,128,i
                      00146         LCDOUT?C        0FEh
00A2   30FE               M         movlw   0FEh
                          M         L?CALL  LCDOUT
                          M         RST?RP
                          M     if ((PREV_BANK & 1) != 0)
                          M         bcf     STATUS, RP0
                          M     endif
                          M     if ((PREV_BANK & 2) != 0)
                          M         bcf     STATUS, RP1
                          M     endif
  00000000                M PREV_BANK = 0
                          M 
                          M     ifdef USE_LINKER
                          M       if (CODE_SIZE > 2)
                          M         pagesel LCDOUT
                          M       endif
                          M     else
                          M       if ((LCDOUT) < 1)
                          M         if (CODE_SIZE > 2)
                          M           if (((LCDOUT) & 800h) == 0)
                          M         bcf     PCLATH, 3
                          M         else
                          M         bsf     PCLATH, 3
                          M         endif
                          M         endif
                          M         if (CODE_SIZE > 4)
                          M           if (((LCDOUT) & 1000h) == 0)
                          M         bcf     PCLATH, 4
                          M           else
                          M         bsf     PCLATH, 4
                          M           endif
                          M         endif
                          M       else
                          M         if ((LCDOUT) > $)
                          M           if (CODE_SIZE > 2)
                          M             if (((LCDOUT) & 800h) == 0)
MPASM  5.44                      DERS5_~1.ASM   1-15-2021  13:59:15         PAGE 31


LOC  OBJECT CODE     LINE SOURCE TEXT
  VALUE

                          M         bcf     PCLATH, 3
                          M             else
                          M         bsf     PCLATH, 3
                          M             endif
                          M           endif
                          M           if (CODE_SIZE > 4)
                          M             if (((LCDOUT) & 1000h) == 0)
                          M         bcf     PCLATH, 4
                          M             else
                          M         bsf     PCLATH, 4
                          M             endif
                          M           endif
                          M         else
                          M           if (CODE_SIZE > 2)
                          M             if (((LCDOUT) & 1800h) == 0)
00A3   018A               M         clrf    PCLATH
                          M             else
                          M               if (((LCDOUT) & 800h) == 0)
                          M         bcf     PCLATH, 3
                          M               else
                          M         bsf     PCLATH, 3
                          M               endif
                          M               if (CODE_SIZE > 4)
                          M                 if (((LCDOUT) & 1000h) == 0)
                          M         bcf     PCLATH, 4
                          M                 else
                          M         bsf     PCLATH, 4
                          M                 endif   
                          M               endif
                          M             endif
                          M           endif
                          M         endif
                          M       endif
                          M     endif
                          M 
00A4   200B               M         call    LCDOUT
                      00147         LCDOUT?C        080h
00A5   3080               M         movlw   080h
                          M         L?CALL  LCDOUT
                          M         RST?RP
                          M     if ((PREV_BANK & 1) != 0)
                          M         bcf     STATUS, RP0
                          M     endif
                          M     if ((PREV_BANK & 2) != 0)
                          M         bcf     STATUS, RP1
                          M     endif
  00000000                M PREV_BANK = 0
                          M 
                          M     ifdef USE_LINKER
                          M       if (CODE_SIZE > 2)
                          M         pagesel LCDOUT
                          M       endif
                          M     else
MPASM  5.44                      DERS5_~1.ASM   1-15-2021  13:59:15         PAGE 32


LOC  OBJECT CODE     LINE SOURCE TEXT
  VALUE

                          M       if ((LCDOUT) < 1)
                          M         if (CODE_SIZE > 2)
                          M           if (((LCDOUT) & 800h) == 0)
                          M         bcf     PCLATH, 3
                          M         else
                          M         bsf     PCLATH, 3
                          M         endif
                          M         endif
                          M         if (CODE_SIZE > 4)
                          M           if (((LCDOUT) & 1000h) == 0)
                          M         bcf     PCLATH, 4
                          M           else
                          M         bsf     PCLATH, 4
                          M           endif
                          M         endif
                          M       else
                          M         if ((LCDOUT) > $)
                          M           if (CODE_SIZE > 2)
                          M             if (((LCDOUT) & 800h) == 0)
                          M         bcf     PCLATH, 3
                          M             else
                          M         bsf     PCLATH, 3
                          M             endif
                          M           endif
                          M           if (CODE_SIZE > 4)
                          M             if (((LCDOUT) & 1000h) == 0)
                          M         bcf     PCLATH, 4
                          M             else
                          M         bsf     PCLATH, 4
                          M             endif
                          M           endif
                          M         else
                          M           if (CODE_SIZE > 2)
                          M             if (((LCDOUT) & 1800h) == 0)
00A6   018A               M         clrf    PCLATH
                          M             else
                          M               if (((LCDOUT) & 800h) == 0)
                          M         bcf     PCLATH, 3
                          M               else
                          M         bsf     PCLATH, 3
                          M               endif
                          M               if (CODE_SIZE > 4)
                          M                 if (((LCDOUT) & 1000h) == 0)
                          M         bcf     PCLATH, 4
                          M                 else
                          M         bsf     PCLATH, 4
                          M                 endif   
                          M               endif
                          M             endif
                          M           endif
                          M         endif
                          M       endif
                          M     endif
MPASM  5.44                      DERS5_~1.ASM   1-15-2021  13:59:15         PAGE 33


LOC  OBJECT CODE     LINE SOURCE TEXT
  VALUE

                          M 
00A7   200B               M         call    LCDOUT
                      00148         LCDOUT?B        _i
                          M         MOVE?BA _i
                          M         CHK?RP  _i
                          M     if (((_i)    & 180h) == 0)
                          M       if (PREV_BANK == 1)
                          M         bcf     STATUS, RP0
                          M       endif
                          M       if (PREV_BANK == 2)
                          M         bcf     STATUS, RP1
                          M       endif
                          M       if (PREV_BANK == 3)
                          M         bcf     STATUS, RP0
                          M         bcf     STATUS, RP1
                          M       endif
  00000000                M PREV_BANK = 0
                          M     endif
                          M 
                          M     if (((_i)    & 180h) == 80h)
                          M       if (PREV_BANK == 0)
                          M         bsf     STATUS, RP0
                          M       endif
                          M       if (PREV_BANK == 2)
                          M         bsf     STATUS, RP0
                          M         bcf     STATUS, RP1
                          M       endif
                          M       if (PREV_BANK == 3)
                          M         bcf     STATUS, RP1
                          M       endif
                          M PREV_BANK = 1
                          M     endif
                          M 
                          M     if (((_i)    & 180h) == 100h)
                          M       if (PREV_BANK == 0)
                          M         bsf     STATUS, RP1
                          M       endif
                          M       if (PREV_BANK == 1)
                          M         bcf     STATUS, RP0
                          M         bsf     STATUS, RP1
                          M       endif
                          M       if (PREV_BANK == 3)
                          M         bcf     STATUS, RP0
                          M       endif
                          M PREV_BANK = 2
                          M     endif
                          M 
                          M     if (((_i)    & 180h) == 180h)
                          M       if (PREV_BANK == 0)
                          M         bsf     STATUS, RP0
                          M         bsf     STATUS, RP1
                          M       endif
                          M       if (PREV_BANK == 1)
MPASM  5.44                      DERS5_~1.ASM   1-15-2021  13:59:15         PAGE 34


LOC  OBJECT CODE     LINE SOURCE TEXT
  VALUE

                          M         bsf     STATUS, RP1
                          M       endif
                          M       if (PREV_BANK == 2)
                          M         bsf     STATUS, RP0
                          M       endif
                          M PREV_BANK = 3
                          M     endif
00A8   0838               M         movf    _i,  W
                          M         L?CALL  LCDOUT
                          M         RST?RP
                          M     if ((PREV_BANK & 1) != 0)
                          M         bcf     STATUS, RP0
                          M     endif
                          M     if ((PREV_BANK & 2) != 0)
                          M         bcf     STATUS, RP1
                          M     endif
  00000000                M PREV_BANK = 0
                          M 
                          M     ifdef USE_LINKER
                          M       if (CODE_SIZE > 2)
                          M         pagesel LCDOUT
                          M       endif
                          M     else
                          M       if ((LCDOUT) < 1)
                          M         if (CODE_SIZE > 2)
                          M           if (((LCDOUT) & 800h) == 0)
                          M         bcf     PCLATH, 3
                          M         else
                          M         bsf     PCLATH, 3
                          M         endif
                          M         endif
                          M         if (CODE_SIZE > 4)
                          M           if (((LCDOUT) & 1000h) == 0)
                          M         bcf     PCLATH, 4
                          M           else
                          M         bsf     PCLATH, 4
                          M           endif
                          M         endif
                          M       else
                          M         if ((LCDOUT) > $)
                          M           if (CODE_SIZE > 2)
                          M             if (((LCDOUT) & 800h) == 0)
                          M         bcf     PCLATH, 3
                          M             else
                          M         bsf     PCLATH, 3
                          M             endif
                          M           endif
                          M           if (CODE_SIZE > 4)
                          M             if (((LCDOUT) & 1000h) == 0)
                          M         bcf     PCLATH, 4
                          M             else
                          M         bsf     PCLATH, 4
                          M             endif
MPASM  5.44                      DERS5_~1.ASM   1-15-2021  13:59:15         PAGE 35


LOC  OBJECT CODE     LINE SOURCE TEXT
  VALUE

                          M           endif
                          M         else
                          M           if (CODE_SIZE > 2)
                          M             if (((LCDOUT) & 1800h) == 0)
00A9   018A               M         clrf    PCLATH
                          M             else
                          M               if (((LCDOUT) & 800h) == 0)
                          M         bcf     PCLATH, 3
                          M               else
                          M         bsf     PCLATH, 3
                          M               endif
                          M               if (CODE_SIZE > 4)
                          M                 if (((LCDOUT) & 1000h) == 0)
                          M         bcf     PCLATH, 4
                          M                 else
                          M         bsf     PCLATH, 4
                          M                 endif   
                          M               endif
                          M             endif
                          M           endif
                          M         endif
                          M       endif
                          M     endif
                          M 
00AA   200B               M         call    LCDOUT
                      00149 
                      00150 ; C:\USERS\HP\DESKTOP\DERSLER\MIKROD\5\DERS5_~1.PBP     00029       case 2
                      00151         GOTO?L  L00002
                          M         L?GOTO  L00002
                          M     ifdef USE_LINKER
                          M         CLRWDT?
                          M     else
                          M       if ($ == (L00002))
                          M         CLRWDT?
                          M       endif
                          M     endif
                          M 
                          M         RST?RP
                          M     if ((PREV_BANK & 1) != 0)
                          M         bcf     STATUS, RP0
                          M     endif
                          M     if ((PREV_BANK & 2) != 0)
                          M         bcf     STATUS, RP1
                          M     endif
  00000000                M PREV_BANK = 0
                          M 
                          M     ifdef USE_LINKER
                          M       if (CODE_SIZE > 2)
                          M         pagesel L00002
                          M       endif
                          M     else
                          M       if ((L00002) < 1)
                          M         if (CODE_SIZE > 2)
MPASM  5.44                      DERS5_~1.ASM   1-15-2021  13:59:15         PAGE 36


LOC  OBJECT CODE     LINE SOURCE TEXT
  VALUE

                          M           if (((L00002) & 800h) == 0)
                          M         bcf     PCLATH, 3
                          M           else
                          M         bsf     PCLATH, 3
                          M           endif
                          M         endif
                          M         if (CODE_SIZE > 4)
                          M           if (((L00002) & 1000h) == 0)
                          M         bcf     PCLATH, 4
                          M           else
                          M         bsf     PCLATH, 4
                          M           endif
                          M         endif
                          M       else
                          M         if ((L00002) > $)
                          M           if (CODE_SIZE > 2)
                          M             if (((L00002) & 800h) == 0)
00AB   118A               M         bcf     PCLATH, 3
                          M             else
                          M         bsf     PCLATH, 3
                          M             endif
                          M           endif
                          M           if (CODE_SIZE > 4)
                          M             if (((L00002) & 1000h) == 0)
00AC   120A               M         bcf     PCLATH, 4
                          M             else
                          M         bsf     PCLATH, 4
                          M             endif
                          M           endif
                          M         else
                          M           if (CODE_SIZE > 2)
                          M             if (((L00002) & 1800h) == 0)
                          M         clrf    PCLATH
                          M             else
                          M               if (((L00002) & 800h) == 0)
                          M         bcf     PCLATH, 3
                          M               else
                          M         bsf     PCLATH, 3
                          M               endif
                          M               if (CODE_SIZE > 4)
                          M                 if (((L00002) & 1000h) == 0)
                          M         bcf     PCLATH, 4
                          M                 else
                          M         bsf     PCLATH, 4
                          M                 endif
                          M               endif
                          M             endif
                          M           endif
                          M         endif
                          M       endif
                          M     endif
                          M 
00AD   28BE               M         goto    L00002
MPASM  5.44                      DERS5_~1.ASM   1-15-2021  13:59:15         PAGE 37


LOC  OBJECT CODE     LINE SOURCE TEXT
  VALUE

                      00152         LABEL?L L00004  
                          M         RST?RP
                          M     if ((PREV_BANK & 1) != 0)
                          M         bcf     STATUS, RP0
                          M     endif
                          M     if ((PREV_BANK & 2) != 0)
                          M         bcf     STATUS, RP1
                          M     endif
  00000000                M PREV_BANK = 0
                          M     ifdef PM_USED
                          M         LALL
                          M L00004
                          M         XALL
                          M     else
00AE                      M L00004
                          M     endif
                      00153         CMPNE?BCL       _j, 002h, L00005
                          M     if (((002h) > -100h) & ((002h) < 100h))
                          M         CLRWDT?
                          M     ifndef NO_CLRWDT
00AE   0064               M         clrwdt
                          M     endif
                          M         MOVE?BA _j
                          M         CHK?RP  _j
                          M     if (((_j)    & 180h) == 0)
                          M       if (PREV_BANK == 1)
                          M         bcf     STATUS, RP0
                          M       endif
                          M       if (PREV_BANK == 2)
                          M         bcf     STATUS, RP1
                          M       endif
                          M       if (PREV_BANK == 3)
                          M         bcf     STATUS, RP0
                          M         bcf     STATUS, RP1
                          M       endif
  00000000                M PREV_BANK = 0
                          M     endif
                          M 
                          M     if (((_j)    & 180h) == 80h)
                          M       if (PREV_BANK == 0)
                          M         bsf     STATUS, RP0
                          M       endif
                          M       if (PREV_BANK == 2)
                          M         bsf     STATUS, RP0
                          M         bcf     STATUS, RP1
                          M       endif
                          M       if (PREV_BANK == 3)
                          M         bcf     STATUS, RP1
                          M       endif
                          M PREV_BANK = 1
                          M     endif
                          M 
                          M     if (((_j)    & 180h) == 100h)
MPASM  5.44                      DERS5_~1.ASM   1-15-2021  13:59:15         PAGE 38


LOC  OBJECT CODE     LINE SOURCE TEXT
  VALUE

                          M       if (PREV_BANK == 0)
                          M         bsf     STATUS, RP1
                          M       endif
                          M       if (PREV_BANK == 1)
                          M         bcf     STATUS, RP0
                          M         bsf     STATUS, RP1
                          M       endif
                          M       if (PREV_BANK == 3)
                          M         bcf     STATUS, RP0
                          M       endif
                          M PREV_BANK = 2
                          M     endif
                          M 
                          M     if (((_j)    & 180h) == 180h)
                          M       if (PREV_BANK == 0)
                          M         bsf     STATUS, RP0
                          M         bsf     STATUS, RP1
                          M       endif
                          M       if (PREV_BANK == 1)
                          M         bsf     STATUS, RP1
                          M       endif
                          M       if (PREV_BANK == 2)
                          M         bsf     STATUS, RP0
                          M       endif
                          M PREV_BANK = 3
                          M     endif
00AF   0839               M         movf    _j,  W
00B0   3C02               M         sublw   002h
                          M         BIT?GOTO 0, STATUS, Z, L00005
                          M     ifdef USE_LINKER
                          M         CLRWDT?
                          M     else
                          M       if ($ == (L00005))
                          M         CLRWDT?
                          M       endif
                          M     endif
                          M 
                          M     ifdef USE_LINKER
                          M       if (CODE_SIZE > 2)
                          M         pagesel L00005
                          M       endif
                          M     else
                          M       if (CODE_SIZE > 2)
                          M         if (((L00005) & 800h) == 0)
00B1   118A               M         bcf     PCLATH, 3
                          M         else
                          M         bsf     PCLATH, 3
                          M         endif
                          M       endif
                          M       if (CODE_SIZE > 4)
                          M         if (((L00005) & 1000h) == 0)
00B2   120A               M         bcf     PCLATH, 4
                          M         else
MPASM  5.44                      DERS5_~1.ASM   1-15-2021  13:59:15         PAGE 39


LOC  OBJECT CODE     LINE SOURCE TEXT
  VALUE

                          M         bsf     PCLATH, 4
                          M         endif
                          M       endif
                          M     endif
                          M 
                          M     if (((STATUS) & 0ff80h) != 0)
                          M         CHK?RP  STATUS
                          M         bcf     STATUS, DC
                          M       if ((0)      == 0)
                          M         btfss   STATUS, Z
                          M       else
                          M         btfsc   STATUS, Z
                          M       endif
                          M         bsf     STATUS, DC
                          M         RST?RP
                          M         btfsc   STATUS, DC
                          M     else
                          M         RST?RP
                          M     if ((PREV_BANK & 1) != 0)
                          M         bcf     STATUS, RP0
                          M     endif
                          M     if ((PREV_BANK & 2) != 0)
                          M         bcf     STATUS, RP1
                          M     endif
  00000000                M PREV_BANK = 0
                          M       if ((0)      == 0)
00B3   1D03               M         btfss   STATUS, Z
                          M       else
                          M         btfsc   STATUS, Z
                          M       endif
                          M     endif
                          M 
00B4   28BE               M         goto    L00005
                          M     else
                          M         L?GOTO  L00005
                          M     endif
                      00154 
                      00155 ; C:\USERS\HP\DESKTOP\DERSLER\MIKROD\5\DERS5_~1.PBP     00030           lcdout $fe,130,i
                      00156         LCDOUT?C        0FEh
00B5   30FE               M         movlw   0FEh
                          M         L?CALL  LCDOUT
                          M         RST?RP
                          M     if ((PREV_BANK & 1) != 0)
                          M         bcf     STATUS, RP0
                          M     endif
                          M     if ((PREV_BANK & 2) != 0)
                          M         bcf     STATUS, RP1
                          M     endif
  00000000                M PREV_BANK = 0
                          M 
                          M     ifdef USE_LINKER
                          M       if (CODE_SIZE > 2)
                          M         pagesel LCDOUT
MPASM  5.44                      DERS5_~1.ASM   1-15-2021  13:59:15         PAGE 40


LOC  OBJECT CODE     LINE SOURCE TEXT
  VALUE

                          M       endif
                          M     else
                          M       if ((LCDOUT) < 1)
                          M         if (CODE_SIZE > 2)
                          M           if (((LCDOUT) & 800h) == 0)
                          M         bcf     PCLATH, 3
                          M         else
                          M         bsf     PCLATH, 3
                          M         endif
                          M         endif
                          M         if (CODE_SIZE > 4)
                          M           if (((LCDOUT) & 1000h) == 0)
                          M         bcf     PCLATH, 4
                          M           else
                          M         bsf     PCLATH, 4
                          M           endif
                          M         endif
                          M       else
                          M         if ((LCDOUT) > $)
                          M           if (CODE_SIZE > 2)
                          M             if (((LCDOUT) & 800h) == 0)
                          M         bcf     PCLATH, 3
                          M             else
                          M         bsf     PCLATH, 3
                          M             endif
                          M           endif
                          M           if (CODE_SIZE > 4)
                          M             if (((LCDOUT) & 1000h) == 0)
                          M         bcf     PCLATH, 4
                          M             else
                          M         bsf     PCLATH, 4
                          M             endif
                          M           endif
                          M         else
                          M           if (CODE_SIZE > 2)
                          M             if (((LCDOUT) & 1800h) == 0)
00B6   018A               M         clrf    PCLATH
                          M             else
                          M               if (((LCDOUT) & 800h) == 0)
                          M         bcf     PCLATH, 3
                          M               else
                          M         bsf     PCLATH, 3
                          M               endif
                          M               if (CODE_SIZE > 4)
                          M                 if (((LCDOUT) & 1000h) == 0)
                          M         bcf     PCLATH, 4
                          M                 else
                          M         bsf     PCLATH, 4
                          M                 endif   
                          M               endif
                          M             endif
                          M           endif
                          M         endif
MPASM  5.44                      DERS5_~1.ASM   1-15-2021  13:59:15         PAGE 41


LOC  OBJECT CODE     LINE SOURCE TEXT
  VALUE

                          M       endif
                          M     endif
                          M 
00B7   200B               M         call    LCDOUT
                      00157         LCDOUT?C        082h
00B8   3082               M         movlw   082h
                          M         L?CALL  LCDOUT
                          M         RST?RP
                          M     if ((PREV_BANK & 1) != 0)
                          M         bcf     STATUS, RP0
                          M     endif
                          M     if ((PREV_BANK & 2) != 0)
                          M         bcf     STATUS, RP1
                          M     endif
  00000000                M PREV_BANK = 0
                          M 
                          M     ifdef USE_LINKER
                          M       if (CODE_SIZE > 2)
                          M         pagesel LCDOUT
                          M       endif
                          M     else
                          M       if ((LCDOUT) < 1)
                          M         if (CODE_SIZE > 2)
                          M           if (((LCDOUT) & 800h) == 0)
                          M         bcf     PCLATH, 3
                          M         else
                          M         bsf     PCLATH, 3
                          M         endif
                          M         endif
                          M         if (CODE_SIZE > 4)
                          M           if (((LCDOUT) & 1000h) == 0)
                          M         bcf     PCLATH, 4
                          M           else
                          M         bsf     PCLATH, 4
                          M           endif
                          M         endif
                          M       else
                          M         if ((LCDOUT) > $)
                          M           if (CODE_SIZE > 2)
                          M             if (((LCDOUT) & 800h) == 0)
                          M         bcf     PCLATH, 3
                          M             else
                          M         bsf     PCLATH, 3
                          M             endif
                          M           endif
                          M           if (CODE_SIZE > 4)
                          M             if (((LCDOUT) & 1000h) == 0)
                          M         bcf     PCLATH, 4
                          M             else
                          M         bsf     PCLATH, 4
                          M             endif
                          M           endif
                          M         else
MPASM  5.44                      DERS5_~1.ASM   1-15-2021  13:59:15         PAGE 42


LOC  OBJECT CODE     LINE SOURCE TEXT
  VALUE

                          M           if (CODE_SIZE > 2)
                          M             if (((LCDOUT) & 1800h) == 0)
00B9   018A               M         clrf    PCLATH
                          M             else
                          M               if (((LCDOUT) & 800h) == 0)
                          M         bcf     PCLATH, 3
                          M               else
                          M         bsf     PCLATH, 3
                          M               endif
                          M               if (CODE_SIZE > 4)
                          M                 if (((LCDOUT) & 1000h) == 0)
                          M         bcf     PCLATH, 4
                          M                 else
                          M         bsf     PCLATH, 4
                          M                 endif   
                          M               endif
                          M             endif
                          M           endif
                          M         endif
                          M       endif
                          M     endif
                          M 
00BA   200B               M         call    LCDOUT
                      00158         LCDOUT?B        _i
                          M         MOVE?BA _i
                          M         CHK?RP  _i
                          M     if (((_i)    & 180h) == 0)
                          M       if (PREV_BANK == 1)
                          M         bcf     STATUS, RP0
                          M       endif
                          M       if (PREV_BANK == 2)
                          M         bcf     STATUS, RP1
                          M       endif
                          M       if (PREV_BANK == 3)
                          M         bcf     STATUS, RP0
                          M         bcf     STATUS, RP1
                          M       endif
  00000000                M PREV_BANK = 0
                          M     endif
                          M 
                          M     if (((_i)    & 180h) == 80h)
                          M       if (PREV_BANK == 0)
                          M         bsf     STATUS, RP0
                          M       endif
                          M       if (PREV_BANK == 2)
                          M         bsf     STATUS, RP0
                          M         bcf     STATUS, RP1
                          M       endif
                          M       if (PREV_BANK == 3)
                          M         bcf     STATUS, RP1
                          M       endif
                          M PREV_BANK = 1
                          M     endif
MPASM  5.44                      DERS5_~1.ASM   1-15-2021  13:59:15         PAGE 43


LOC  OBJECT CODE     LINE SOURCE TEXT
  VALUE

                          M 
                          M     if (((_i)    & 180h) == 100h)
                          M       if (PREV_BANK == 0)
                          M         bsf     STATUS, RP1
                          M       endif
                          M       if (PREV_BANK == 1)
                          M         bcf     STATUS, RP0
                          M         bsf     STATUS, RP1
                          M       endif
                          M       if (PREV_BANK == 3)
                          M         bcf     STATUS, RP0
                          M       endif
                          M PREV_BANK = 2
                          M     endif
                          M 
                          M     if (((_i)    & 180h) == 180h)
                          M       if (PREV_BANK == 0)
                          M         bsf     STATUS, RP0
                          M         bsf     STATUS, RP1
                          M       endif
                          M       if (PREV_BANK == 1)
                          M         bsf     STATUS, RP1
                          M       endif
                          M       if (PREV_BANK == 2)
                          M         bsf     STATUS, RP0
                          M       endif
                          M PREV_BANK = 3
                          M     endif
00BB   0838               M         movf    _i,  W
                          M         L?CALL  LCDOUT
                          M         RST?RP
                          M     if ((PREV_BANK & 1) != 0)
                          M         bcf     STATUS, RP0
                          M     endif
                          M     if ((PREV_BANK & 2) != 0)
                          M         bcf     STATUS, RP1
                          M     endif
  00000000                M PREV_BANK = 0
                          M 
                          M     ifdef USE_LINKER
                          M       if (CODE_SIZE > 2)
                          M         pagesel LCDOUT
                          M       endif
                          M     else
                          M       if ((LCDOUT) < 1)
                          M         if (CODE_SIZE > 2)
                          M           if (((LCDOUT) & 800h) == 0)
                          M         bcf     PCLATH, 3
                          M         else
                          M         bsf     PCLATH, 3
                          M         endif
                          M         endif
                          M         if (CODE_SIZE > 4)
MPASM  5.44                      DERS5_~1.ASM   1-15-2021  13:59:15         PAGE 44


LOC  OBJECT CODE     LINE SOURCE TEXT
  VALUE

                          M           if (((LCDOUT) & 1000h) == 0)
                          M         bcf     PCLATH, 4
                          M           else
                          M         bsf     PCLATH, 4
                          M           endif
                          M         endif
                          M       else
                          M         if ((LCDOUT) > $)
                          M           if (CODE_SIZE > 2)
                          M             if (((LCDOUT) & 800h) == 0)
                          M         bcf     PCLATH, 3
                          M             else
                          M         bsf     PCLATH, 3
                          M             endif
                          M           endif
                          M           if (CODE_SIZE > 4)
                          M             if (((LCDOUT) & 1000h) == 0)
                          M         bcf     PCLATH, 4
                          M             else
                          M         bsf     PCLATH, 4
                          M             endif
                          M           endif
                          M         else
                          M           if (CODE_SIZE > 2)
                          M             if (((LCDOUT) & 1800h) == 0)
00BC   018A               M         clrf    PCLATH
                          M             else
                          M               if (((LCDOUT) & 800h) == 0)
                          M         bcf     PCLATH, 3
                          M               else
                          M         bsf     PCLATH, 3
                          M               endif
                          M               if (CODE_SIZE > 4)
                          M                 if (((LCDOUT) & 1000h) == 0)
                          M         bcf     PCLATH, 4
                          M                 else
                          M         bsf     PCLATH, 4
                          M                 endif   
                          M               endif
                          M             endif
                          M           endif
                          M         endif
                          M       endif
                          M     endif
                          M 
00BD   200B               M         call    LCDOUT
                      00159 
                      00160 ; C:\USERS\HP\DESKTOP\DERSLER\MIKROD\5\DERS5_~1.PBP     00031   end select
                      00161         LABEL?L L00005  
                          M         RST?RP
                          M     if ((PREV_BANK & 1) != 0)
                          M         bcf     STATUS, RP0
                          M     endif
MPASM  5.44                      DERS5_~1.ASM   1-15-2021  13:59:15         PAGE 45


LOC  OBJECT CODE     LINE SOURCE TEXT
  VALUE

                          M     if ((PREV_BANK & 2) != 0)
                          M         bcf     STATUS, RP1
                          M     endif
  00000000                M PREV_BANK = 0
                          M     ifdef PM_USED
                          M         LALL
                          M L00005
                          M         XALL
                          M     else
00BE                      M L00005
                          M     endif
                      00162         LABEL?L L00002  
                          M         RST?RP
                          M     if ((PREV_BANK & 1) != 0)
                          M         bcf     STATUS, RP0
                          M     endif
                          M     if ((PREV_BANK & 2) != 0)
                          M         bcf     STATUS, RP1
                          M     endif
  00000000                M PREV_BANK = 0
                          M     ifdef PM_USED
                          M         LALL
                          M L00002
                          M         XALL
                          M     else
00BE                      M L00002
                          M     endif
                      00163 
                      00164 ; C:\USERS\HP\DESKTOP\DERSLER\MIKROD\5\DERS5_~1.PBP     00033   j=j+1
                      00165         ADD?BCB _j, 001h, _j
                          M     if ((_j)   == (_j))
                          M       if ((001h) == 1)
                          M         CHK?RP  _j
                          M     if (((_j)    & 180h) == 0)
                          M       if (PREV_BANK == 1)
                          M         bcf     STATUS, RP0
                          M       endif
                          M       if (PREV_BANK == 2)
                          M         bcf     STATUS, RP1
                          M       endif
                          M       if (PREV_BANK == 3)
                          M         bcf     STATUS, RP0
                          M         bcf     STATUS, RP1
                          M       endif
  00000000                M PREV_BANK = 0
                          M     endif
                          M 
                          M     if (((_j)    & 180h) == 80h)
                          M       if (PREV_BANK == 0)
                          M         bsf     STATUS, RP0
                          M       endif
                          M       if (PREV_BANK == 2)
                          M         bsf     STATUS, RP0
MPASM  5.44                      DERS5_~1.ASM   1-15-2021  13:59:15         PAGE 46


LOC  OBJECT CODE     LINE SOURCE TEXT
  VALUE

                          M         bcf     STATUS, RP1
                          M       endif
                          M       if (PREV_BANK == 3)
                          M         bcf     STATUS, RP1
                          M       endif
                          M PREV_BANK = 1
                          M     endif
                          M 
                          M     if (((_j)    & 180h) == 100h)
                          M       if (PREV_BANK == 0)
                          M         bsf     STATUS, RP1
                          M       endif
                          M       if (PREV_BANK == 1)
                          M         bcf     STATUS, RP0
                          M         bsf     STATUS, RP1
                          M       endif
                          M       if (PREV_BANK == 3)
                          M         bcf     STATUS, RP0
                          M       endif
                          M PREV_BANK = 2
                          M     endif
                          M 
                          M     if (((_j)    & 180h) == 180h)
                          M       if (PREV_BANK == 0)
                          M         bsf     STATUS, RP0
                          M         bsf     STATUS, RP1
                          M       endif
                          M       if (PREV_BANK == 1)
                          M         bsf     STATUS, RP1
                          M       endif
                          M       if (PREV_BANK == 2)
                          M         bsf     STATUS, RP0
                          M       endif
                          M PREV_BANK = 3
                          M     endif
00BE   0AB9               M         incf    _j,   F
                          M       else
                          M         movlw   001h
                          M         CHK?RP  _j
                          M         addwf   _j,  F
                          M       endif
                          M     else
                          M       if ((001h) == 1)
                          M         CHK?RP  _j
                          M         incf    _j,  W
                          M         MOVE?AB _j
                          M       else
                          M         movlw   001h
                          M         CHK?RP  _j
                          M         addwf   _j,  W
                          M         MOVE?AB _j
                          M       endif
                          M     endif
MPASM  5.44                      DERS5_~1.ASM   1-15-2021  13:59:15         PAGE 47


LOC  OBJECT CODE     LINE SOURCE TEXT
  VALUE

                      00166 
                      00167 ; C:\USERS\HP\DESKTOP\DERSLER\MIKROD\5\DERS5_~1.PBP     00035   goto label
                      00168         GOTO?L  _label
                          M         L?GOTO  _label
                          M     ifdef USE_LINKER
                          M         CLRWDT?
                          M     else
                          M       if ($ == (_label))
                          M         CLRWDT?
                          M       endif
                          M     endif
                          M 
                          M         RST?RP
                          M     if ((PREV_BANK & 1) != 0)
                          M         bcf     STATUS, RP0
                          M     endif
                          M     if ((PREV_BANK & 2) != 0)
                          M         bcf     STATUS, RP1
                          M     endif
  00000000                M PREV_BANK = 0
                          M 
                          M     ifdef USE_LINKER
                          M       if (CODE_SIZE > 2)
                          M         pagesel _label
                          M       endif
                          M     else
                          M       if ((_label) < 1)
                          M         if (CODE_SIZE > 2)
                          M           if (((_label) & 800h) == 0)
                          M         bcf     PCLATH, 3
                          M           else
                          M         bsf     PCLATH, 3
                          M           endif
                          M         endif
                          M         if (CODE_SIZE > 4)
                          M           if (((_label) & 1000h) == 0)
                          M         bcf     PCLATH, 4
                          M           else
                          M         bsf     PCLATH, 4
                          M           endif
                          M         endif
                          M       else
                          M         if ((_label) > $)
                          M           if (CODE_SIZE > 2)
                          M             if (((_label) & 800h) == 0)
                          M         bcf     PCLATH, 3
                          M             else
                          M         bsf     PCLATH, 3
                          M             endif
                          M           endif
                          M           if (CODE_SIZE > 4)
                          M             if (((_label) & 1000h) == 0)
                          M         bcf     PCLATH, 4
MPASM  5.44                      DERS5_~1.ASM   1-15-2021  13:59:15         PAGE 48


LOC  OBJECT CODE     LINE SOURCE TEXT
  VALUE

                          M             else
                          M         bsf     PCLATH, 4
                          M             endif
                          M           endif
                          M         else
                          M           if (CODE_SIZE > 2)
                          M             if (((_label) & 1800h) == 0)
00BF   018A               M         clrf    PCLATH
                          M             else
                          M               if (((_label) & 800h) == 0)
                          M         bcf     PCLATH, 3
                          M               else
                          M         bsf     PCLATH, 3
                          M               endif
                          M               if (CODE_SIZE > 4)
                          M                 if (((_label) & 1000h) == 0)
                          M         bcf     PCLATH, 4
                          M                 else
                          M         bsf     PCLATH, 4
                          M                 endif
                          M               endif
                          M             endif
                          M           endif
                          M         endif
                          M       endif
                          M     endif
                          M 
00C0   2885               M         goto    _label
                      00169 
                      00170         END
MPASM  5.44                      DERS5_~1.ASM   1-15-2021  13:59:15         PAGE 49


SYMBOL TABLE
  LABEL                             VALUE 

ACKDT                             00000005
ACKEN                             00000004
ACKSTAT                           00000006
ADCON0                            0000001F
ADCON1                            0000009F
ADCS0                             00000006
ADCS1                             00000007
ADC_BITS                          00000008
ADC_CLOCK                         00000003
ADC_SAMPLEUS                      00000032
ADD?BCB                           
ADDEN                             00000003
ADFM                              00000007
ADIE                              00000006
ADIF                              00000006
ADON                              00000000
ADRESH                            0000001E
ADRESL                            0000009E
BANK0_END                         0000007F
BANK0_START                       00000020
BANK1_END                         000000EF
BANK1_START                       000000A0
BANK2_END                         0000016F
BANK2_START                       00000110
BANK3_END                         000001EF
BANK3_START                       00000190
BCLIE                             00000003
BCLIF                             00000003
BF                                00000000
BIT?FLIP                          
BIT?FW                            
BIT?GOTO                          
BIT?R1                            
BIT?R2                            
BIT?W                             
BRGH                              00000002
BUTTON_PAUSE                      0000000A
C                                 00000000
CCP1CON                           00000017
CCP1IE                            00000002
CCP1IF                            00000002
CCP1M0                            00000000
CCP1M1                            00000001
CCP1M2                            00000002
CCP1M3                            00000003
CCP1X                             00000005
CCP1Y                             00000004
CCP1_BIT                          00000002
CCP1_REG                          00000007
CCP2CON                           0000001D
CCP2IE                            00000000
CCP2IF                            00000000
CCP2M0                            00000000
MPASM  5.44                      DERS5_~1.ASM   1-15-2021  13:59:15         PAGE 50


SYMBOL TABLE
  LABEL                             VALUE 

CCP2M1                            00000001
CCP2M2                            00000002
CCP2M3                            00000003
CCP2X                             00000005
CCP2Y                             00000004
CCP2_BIT                          00000001
CCP2_REG                          00000007
CCPR1                             00000015
CCPR1H                            00000016
CCPR1L                            00000015
CCPR2                             0000001B
CCPR2H                            0000001C
CCPR2L                            0000001B
CHK?RP                            
CHS0                              00000003
CHS1                              00000004
CHS2                              00000005
CKE                               00000006
CKP                               00000004
CLRWDT?                           
CLRWDT?NOP                        
CMPNE?BCL                         
CODE_SIZE                         8
CREN                              00000004
CSRC                              00000007
D                                 00000005
DATA_ADDRESS                      00000005
DC                                00000001
DEBUGIN_BIT                       00000000
DEBUGIN_MODE                      00000001
DEBUGIN_REG                       00000006
DEBUG_BAUD                        00000960
DEBUG_BIT                         00000000
DEBUG_DELAY                       00000193
DEBUG_MODE                        00000001
DEBUG_REG                         00000006
DONE                              00000071
DONERET                           00000075
DONE_USED                         00000001
D_A                               00000005
D_NOT_A                           00000005
EEADR                             0000010D
EEADRH                            0000010F
EECON1                            0000018C
EECON2                            0000018D
EEDATA                            0000010C
EEDATH                            0000010E
EEIE                              00000004
EEIF                              00000004
EEPGD                             00000007
EEPROM_END                        000021FF
EEPROM_START                      00002100
F                                 00000001
MPASM  5.44                      DERS5_~1.ASM   1-15-2021  13:59:15         PAGE 51


SYMBOL TABLE
  LABEL                             VALUE 

FERR                              00000002
FLAGS                             00000032
FLAGS_USED                        00000001
FSR                               00000004
GCEN                              00000007
GIE                               00000007
GO                                00000002
GOP                               00000033
GOTO?L                            
GO_DONE                           00000002
GO_NOT_DONE                       00000002
HSERIN                            00000002
HSERIN?B                          
HSERINIT_USED                     00000001
HSERINX                           00000008
HSERINX_USED                      00000001
HSERIN_USED                       00000001
HSER_BAUD                         9600
HSER_BITS                         00000008
HSER_CLROERR                      1
HSER_RCSTA                        90h
HSER_SPBRG                        00000019
HSER_TXSTA                        24h
I2CFIRSTFLAG                      FLAGS, 2
I2CREADFLAG                       FLAGS, 3
I2CSTOPFLAG                       FLAGS, 5
I2CSTOPSTRFLAG                    FLAGS, 6
I2CWRITEFLAG                      FLAGS, 4
I2C_DATA                          00000005
I2C_READ                          00000002
I2C_START                         00000003
I2C_STOP                          00000004
IBF                               00000007
IBOV                              00000005
INDF                              00000000
INIT                              00000076
INTCON                            0000000B
INTE                              00000004
INTEDG                            00000006
INTF                              00000001
IRP                               00000007
L00002                            000000BE
L00003                            0000009B
L00004                            000000AE
L00005                            000000BE
L?CALL                            
L?GOTO                            
LABEL?L                           
LCDCDFLAG                         FLAGS, 0
LCDINITFLAG                       FLAGS, 1
LCDOUT                            0000000B
LCDOUT?B                          
LCDOUT?C                          
MPASM  5.44                      DERS5_~1.ASM   1-15-2021  13:59:15         PAGE 52


SYMBOL TABLE
  LABEL                             VALUE 

LCDOUT_USED                       00000001
LCD_BITS                          8
LCD_COMMANDUS                     000007D0
LCD_DATAUS                        00000032
LCD_DBIT                          0
LCD_DREG                          PORTD
LCD_EBIT                          2
LCD_EREG                          PORTE
LCD_LINES                         00000002
LCD_RSBIT                         0
LCD_RSREG                         PORTE
LCD_RWBIT                         00000000
LCD_RWREG                         00000009
MOVE?AB                           
MOVE?AT                           
MOVE?AW                           
MOVE?AWW                          
MOVE?BA                           
MOVE?BB                           
MOVE?BT                           
MOVE?BW                           
MOVE?CA                           
MOVE?CB                           
MOVE?CT                           
MOVE?CW                           
MOVE?TA                           
MOVE?TB                           
MOVE?TT                           
MOVE?TW                           
MOVE?WA                           
MOVE?WB                           
MOVE?WT                           
MOVE?WW                           
MOVE?WWA                          
NOT_A                             00000005
NOT_ADDRESS                       00000005
NOT_BO                            00000000
NOT_BOR                           00000000
NOT_DONE                          00000002
NOT_PD                            00000003
NOT_POR                           00000001
NOT_RBPU                          00000007
NOT_RC8                           00000006
NOT_T1SYNC                        00000002
NOT_TO                            00000004
NOT_TX8                           00000006
NOT_W                             00000002
NOT_WRITE                         00000002
OBF                               00000006
OERR                              00000001
OPTION_REG                        00000081
OSC                               00000004
OSC_VALID                         00000001
MPASM  5.44                      DERS5_~1.ASM   1-15-2021  13:59:15         PAGE 53


SYMBOL TABLE
  LABEL                             VALUE 

P                                 00000004
PAUSE                             0000004F
PAUSE?C                           
PAUSEL                            00000050
PAUSEUS                           0000005C
PAUSEUSL                          0000005D
PAUSEUS_USED                      00000001
PAUSE_DELAY                       000003DF
PAUSE_USED                        00000001
PCFG0                             00000000
PCFG1                             00000001
PCFG2                             00000002
PCFG3                             00000003
PCL                               00000002
PCLATH                            0000000A
PCON                              0000008E
PEIE                              00000006
PEN                               00000002
PIE1                              0000008C
PIE2                              0000008D
PIR1                              0000000C
PIR2                              0000000D
PORTA                             00000005
PORTB                             00000006
PORTC                             00000007
PORTD                             00000008
PORTE                             00000009
PR2                               00000092
PREV_BANK                         00000000
PS0                               00000000
PS1                               00000001
PS2                               00000002
PSA                               00000003
PSPIE                             00000007
PSPIF                             00000007
PSPMODE                           00000004
R                                 00000002
R0                                00000020
R1                                00000022
R2                                00000024
R3                                00000026
R4                                00000028
R5                                0000002A
R6                                0000002C
R7                                0000002E
R8                                00000030
RA0                               00000000
RA1                               00000001
RA2                               00000002
RA3                               00000003
RA4                               00000004
RA5                               00000005
RAM_BANKS                         00000004
MPASM  5.44                      DERS5_~1.ASM   1-15-2021  13:59:15         PAGE 54


SYMBOL TABLE
  LABEL                             VALUE 

RAM_END                           000001EF
RAM_START                         00000020
RB0                               00000000
RB1                               00000001
RB2                               00000002
RB3                               00000003
RB4                               00000004
RB5                               00000005
RB6                               00000006
RB7                               00000007
RBIE                              00000003
RBIF                              00000000
RC0                               00000000
RC1                               00000001
RC2                               00000002
RC3                               00000003
RC4                               00000004
RC5                               00000005
RC6                               00000006
RC7                               00000007
RC8_9                             00000006
RC9                               00000006
RCD8                              00000000
RCEN                              00000003
RCIE                              00000005
RCIF                              00000005
RCREG                             0000001A
RCSTA                             00000018
RD                                00000000
RD0                               00000000
RD1                               00000001
RD2                               00000002
RD3                               00000003
RD4                               00000004
RD5                               00000005
RD6                               00000006
RD7                               00000007
RE0                               00000000
RE1                               00000001
RE2                               00000002
READ_WRITE                        00000002
RESET_ORG                         00000000
RM1                               00000034
RM2                               00000035
RP0                               00000005
RP1                               00000006
RR1                               00000036
RR2                               00000037
RSEN                              00000001
RST?RP                            
RX9                               00000006
RX9D                              00000000
R_NOT_W                           00000002
MPASM  5.44                      DERS5_~1.ASM   1-15-2021  13:59:15         PAGE 55


SYMBOL TABLE
  LABEL                             VALUE 

R_W                               00000002
S                                 00000003
SEN                               00000000
SMP                               00000007
SPBRG                             00000099
SPEN                              00000007
SREN                              00000005
SSPADD                            00000093
SSPBUF                            00000013
SSPCON                            00000014
SSPCON2                           00000091
SSPEN                             00000005
SSPIE                             00000003
SSPIF                             00000003
SSPM0                             00000000
SSPM1                             00000001
SSPM2                             00000002
SSPM3                             00000003
SSPOV                             00000006
SSPSTAT                           00000094
STATUS                            00000003
SYNC                              00000004
T0CS                              00000005
T0IE                              00000005
T0IF                              00000002
T0SE                              00000004
T1CKPS0                           00000004
T1CKPS1                           00000005
T1CON                             00000010
T1INSYNC                          00000002
T1OSCEN                           00000003
T1SYNC                            00000002
T2CKPS0                           00000000
T2CKPS1                           00000001
T2CON                             00000012
TMR0                              00000001
TMR0IE                            00000005
TMR0IF                            00000002
TMR1                              0000000E
TMR1CS                            00000001
TMR1H                             0000000F
TMR1IE                            00000000
TMR1IF                            00000000
TMR1L                             0000000E
TMR1ON                            00000000
TMR2                              00000011
TMR2IE                            00000001
TMR2IF                            00000001
TMR2ON                            00000002
TOUTPS0                           00000003
TOUTPS1                           00000004
TOUTPS2                           00000005
TOUTPS3                           00000006
MPASM  5.44                      DERS5_~1.ASM   1-15-2021  13:59:15         PAGE 56


SYMBOL TABLE
  LABEL                             VALUE 

TRISA                             00000085
TRISA0                            00000000
TRISA1                            00000001
TRISA2                            00000002
TRISA3                            00000003
TRISA4                            00000004
TRISA5                            00000005
TRISB                             00000086
TRISB0                            00000000
TRISB1                            00000001
TRISB2                            00000002
TRISB3                            00000003
TRISB4                            00000004
TRISB5                            00000005
TRISB6                            00000006
TRISB7                            00000007
TRISC                             00000087
TRISC0                            00000000
TRISC1                            00000001
TRISC2                            00000002
TRISC3                            00000003
TRISC4                            00000004
TRISC5                            00000005
TRISC6                            00000006
TRISC7                            00000007
TRISD                             00000088
TRISD0                            00000000
TRISD1                            00000001
TRISD2                            00000002
TRISD3                            00000003
TRISD4                            00000004
TRISD5                            00000005
TRISD6                            00000006
TRISD7                            00000007
TRISE                             00000089
TRISE0                            00000000
TRISE1                            00000001
TRISE2                            00000002
TRMT                              00000001
TX8_9                             00000006
TX9                               00000006
TX9D                              00000000
TXD8                              00000000
TXEN                              00000005
TXIE                              00000004
TXIF                              00000004
TXREG                             00000019
TXSTA                             00000098
UA                                00000001
W                                 00000000
WCOL                              00000007
WR                                00000001
WREN                              00000002
MPASM  5.44                      DERS5_~1.ASM   1-15-2021  13:59:15         PAGE 57


SYMBOL TABLE
  LABEL                             VALUE 

WRERR                             00000003
Z                                 00000002
_BODEN_OFF                        00003FBF
_BODEN_ON                         00003FFF
_BOREN_OFF                        00003FBF
_BOREN_ON                         00003FFF
_CONFIG                           00002007
_CPD_OFF                          00003FFF
_CPD_ON                           00003EFF
_CP_ALL                           00000FCF
_CP_HALF                          00001FDF
_CP_OFF                           00003FFF
_CP_UPPER_256                     00002FEF
_DEBUG_OFF                        00003FFF
_DEBUG_ON                         000037FF
_DEVID1                           00002006
_FOSC_EXTRC                       00003FFF
_FOSC_HS                          00003FFE
_FOSC_LP                          00003FFC
_FOSC_XT                          00003FFD
_HS_OSC                           00003FFE
_IDLOC0                           00002000
_IDLOC1                           00002001
_IDLOC2                           00002002
_IDLOC3                           00002003
_LP_OSC                           00003FFC
_LVP_OFF                          00003F7F
_LVP_ON                           00003FFF
_PORTH                            00000007
_PORTL                            00000006
_PWRTE_OFF                        00003FFF
_PWRTE_ON                         00003FF7
_RC_OSC                           00003FFF
_TRISH                            00000087
_TRISL                            00000086
_USED                             00000001
_WDTE_OFF                         00003FFB
_WDTE_ON                          00003FFF
_WDT_OFF                          00003FFB
_WDT_ON                           00003FFF
_WRT_ENABLE_OFF                   00003DFF
_WRT_ENABLE_ON                    00003FFF
_WRT_OFF                          00003DFF
_WRT_ON                           00003FFF
_XT_OSC                           00003FFD
__16F877                          00000001
_i                                00000038
_j                                00000039
_label                            00000085
hserinloop                        00000005
lcdchkcd                          00000041
lcdloop                           00000046
lcdout1                           00000033
MPASM  5.44                      DERS5_~1.ASM   1-15-2021  13:59:15         PAGE 58


SYMBOL TABLE
  LABEL                             VALUE 

lcdoutcom                         00000032
lcdsend                           00000046
main                              0000007E
pauseloop                         00000051
pauseusdone                       00000070
pauseush                          00000066
pauseusloop                       00000063


MEMORY USAGE MAP ('X' = Used,  '-' = Unused)

0000 : XXXXXXXXXXXXXXXX XXXXXXXXXXXXXXXX XXXXXXXXXXXXXXXX XXXXXXXXXXXXXXXX
0040 : XXXXXXXXXXXXXXXX XXXXXXXXXXXXXXXX XXXXXXXXXXXXXXXX XXXXXXXXXXXXXXXX
0080 : XXXXXXXXXXXXXXXX XXXXXXXXXXXXXXXX XXXXXXXXXXXXXXXX XXXXXXXXXXXXXXXX
00C0 : X--------------- ---------------- ---------------- ----------------
2000 : -------X-------- ---------------- ---------------- ----------------

All other memory blocks unused.

Program Memory Words Used:   193
Program Memory Words Free:  7999


Errors   :     0
Warnings :     0 reported,     0 suppressed
Messages :     0 reported,     3 suppressed

